 bindings

 Timestamp is 619a5511 (Sun Nov 21 22:17:53 2021)

 Preferred load address is 10000000

 Start         Length     Name                   Class
 0001:00000000 00000040H .text$di                CODE
 0001:00000040 0001bef0H .text$mn                CODE
 0001:0001bf30 00001200H .text$x                 CODE
 0001:0001d130 0000003bH .text$yd                CODE
 0002:00000000 000001acH .idata$5                DATA
 0002:000001ac 00000004H .00cfg                  DATA
 0002:000001b0 00000004H .CRT$XCA                DATA
 0002:000001b4 00000008H .CRT$XCU                DATA
 0002:000001bc 00000004H .CRT$XCZ                DATA
 0002:000001c0 00000004H .CRT$XIA                DATA
 0002:000001c4 0000000cH .CRT$XIC                DATA
 0002:000001d0 00000004H .CRT$XIZ                DATA
 0002:000001d4 00000004H .CRT$XPA                DATA
 0002:000001d8 00000008H .CRT$XPX                DATA
 0002:000001e0 00000004H .CRT$XPXA               DATA
 0002:000001e4 00000004H .CRT$XPZ                DATA
 0002:000001e8 00000004H .CRT$XTA                DATA
 0002:000001ec 00000004H .CRT$XTZ                DATA
 0002:000001f0 00000000H .gfids$y                DATA
 0002:000001f0 00007090H .rdata                  DATA
 0002:00007280 00000000H .rdata$CastGuardVftablesA DATA
 0002:00007280 00000000H .rdata$CastGuardVftablesC DATA
 0002:00007280 00000214H .rdata$r                DATA
 0002:00007494 000000dcH .rdata$sxdata           DATA
 0002:00007570 00000018H .rdata$voltmd           DATA
 0002:00007588 0000041cH .rdata$zzzdbg           DATA
 0002:000079a4 00000004H .rtc$IAA                DATA
 0002:000079a8 00000004H .rtc$IZZ                DATA
 0002:000079ac 00000004H .rtc$TAA                DATA
 0002:000079b0 00000008H .rtc$TZZ                DATA
 0002:000079b8 0000158cH .xdata$x                DATA
 0002:00008f44 00000020H .didat$2                DATA
 0002:00008f64 00000020H .didat$3                DATA
 0002:00008f84 000000f4H .didat$4                DATA
 0002:00009078 00000f2cH .didat$6                DATA
 0002:00009fa4 000000fcH .didat$7                DATA
 0002:0000a0a0 00000058H .edata                  DATA
 0002:0000a0f8 00000050H .idata$2                DATA
 0002:0000a148 00000014H .idata$3                DATA
 0002:0000a15c 000001acH .idata$4                DATA
 0002:0000a308 000007aaH .idata$6                DATA
 0003:00000000 000008c4H .data                   DATA
 0003:000008c4 000000c0H .data$r                 DATA
 0003:00000984 00000018H .data$rs                DATA
 0003:0000099c 000000f4H .didat$5                DATA
 0003:00000a90 00000a68H .bss                    DATA
 0004:00000000 00000060H .rsrc$01                DATA
 0004:00000060 00000180H .rsrc$02                DATA

  Address         Publics by Value              Rva+Base       Lib:Object

 0000:00000000       ___guard_fids_count        00000000     <absolute>
 0000:00000000       ___guard_eh_cont_table     00000000     <absolute>
 0000:00000000       ___guard_iat_count         00000000     <absolute>
 0000:00000000       ___guard_longjmp_table     00000000     <absolute>
 0000:00000000       ___arm64x_extra_rfe_table  00000000     <absolute>
 0000:00000000       ___arm64x_redirection_metadata 00000000     <absolute>
 0000:00000000       ___guard_eh_cont_count     00000000     <absolute>
 0000:00000000       __except_list              00000000     <absolute>
 0000:00000000       ___x64_code_ranges_to_entry_points_count 00000000     <absolute>
 0000:00000000       ___hybrid_code_map_count   00000000     <absolute>
 0000:00000000       ___x64_code_ranges_to_entry_points 00000000     <absolute>
 0000:00000000       ___guard_iat_table         00000000     <absolute>
 0000:00000000       ___arm64x_native_entrypoint 00000000     <absolute>
 0000:00000000       ___hybrid_code_map         00000000     <absolute>
 0000:00000000       ___arm64x_extra_rfe_table_size 00000000     <absolute>
 0000:00000000       ___guard_longjmp_count     00000000     <absolute>
 0000:00000000       ___guard_check_icall_a64n_fptr 00000000     <absolute>
 0000:00000000       ___arm64x_redirection_metadata_count 00000000     <absolute>
 0000:00000000       ___hybrid_auxiliary_iat    00000000     <absolute>
 0000:00000000       ___dynamic_value_reloc_table 00000000     <absolute>
 0000:00000000       ___AbsoluteZero            00000000     <absolute>
 0000:00000000       ___enclave_config          00000000     <absolute>
 0000:00000000       ___guard_fids_table        00000000     <absolute>
 0000:00000000       ___hybrid_auxiliary_iat_copy 00000000     <absolute>
 0000:00000037       ___safe_se_handler_count   00000037     <absolute>
 0000:00000100       ___guard_flags             00000100     <absolute>
 0000:00000000       ___ImageBase               10000000     <linker-defined>
 0001:00000040       ___local_stdio_printf_options 10001040 f i serialport.obj
 0001:00000050       _snprintf                  10001050 f i serialport.obj
 0001:00000090       ??1exception@stdext@@UAE@XZ 10001090 f i serialport.obj
 0001:000000a0       ?what@exception@stdext@@UBEPBDXZ 100010a0 f i serialport.obj
 0001:000000b0       ?_Raise@exception@stdext@@QBEXXZ 100010b0 f i serialport.obj
 0001:000000e0       @_guard_check_icall_nop@4  100010e0 f i LIBCMT:guard_support.obj
 0001:000000e0       ?_Doraise@exception@stdext@@MBEXXZ 100010e0 f i serialport.obj
 0001:000000f0       ??_Gexception@stdext@@UAEPAXI@Z 100010f0 f i serialport.obj
 0001:000000f0       ??_Eexception@stdext@@UAEPAXI@Z 100010f0 f i * CIL library *:* CIL module *
 0001:00000120       ??1bad_alloc@stdext@@UAE@XZ 10001120 f i serialport.obj
 0001:00000170       ?_Doraise@bad_alloc@stdext@@MBEXXZ 10001170 f i serialport.obj
 0001:00000180       ??_Gbad_alloc@stdext@@UAEPAXI@Z 10001180 f i serialport.obj
 0001:00000180       ??_Ebad_alloc@stdext@@UAEPAXI@Z 10001180 f i * CIL library *:* CIL module *
 0001:000001f0       ??0bad_array_new_length@stdext@@QAE@XZ 100011f0 f i serialport.obj
 0001:00000260       ??_Gbad_array_new_length@stdext@@UAEPAXI@Z 10001260 f i serialport.obj
 0001:00000260       ??_Ebad_array_new_length@stdext@@UAEPAXI@Z 10001260 f i * CIL library *:* CIL module *
 0001:000002d0       ??1bad_array_new_length@stdext@@UAE@XZ 100012d0 f i serialport.obj
 0001:00000320       ?_Throw_bad_array_new_length@std@@YAXXZ 10001320 f i serialport.obj
 0001:00000360       ?_Xlen_string@std@@YAXXZ   10001360 f i serialport.obj
 0001:00000450       ?New@?$Factory@VFunctionTemplate@v8@@@imp@Nan@@SA?AV?$Local@VFunctionTemplate@v8@@@v8@@P6AXABV?$FunctionCallbackInfo@VValue@v8@@@3@@ZV?$Local@VValue@v8@@@5@V?$Local@VSignature@v8@@@5@@Z 10001450 f i serialport.obj
 0001:000005e0       ??0AsyncResource@Nan@@QAE@PBDV?$Local@VObject@v8@@@v8@@@Z 100015e0 f i serialport.obj
 0001:00000680       ??1AsyncResource@Nan@@QAE@XZ 10001680 f i serialport.obj
 0001:000006e0       ??1EscapableHandleScope@Nan@@QAE@XZ 100016e0 f i serialport.obj
 0001:00000730       ??1HandleScope@Nan@@QAE@XZ 10001730 f i serialport.obj
 0001:00000780       ?ThrowTypeError@Nan@@YAXPBD@Z 10001780 f i serialport.obj
 0001:00000830       ??0Utf8String@Nan@@QAE@V?$Local@VValue@v8@@@v8@@@Z 10001830 f i serialport.obj
 0001:00000950       ??1Utf8String@Nan@@QAE@XZ  10001950 f i serialport.obj
 0001:000009a0       ??1Callback@Nan@@QAE@XZ    100019a0 f i serialport.obj
 0001:00000a00       ?Call@Callback@Nan@@QBE?AV?$MaybeLocal@VValue@v8@@@v8@@HQAV?$Local@VValue@v8@@@4@PAVAsyncResource@2@@Z 10001a00 f i serialport.obj
 0001:00000b10       ??1?$Persistent@VFunction@v8@@V?$NonCopyablePersistentTraits@VFunction@v8@@@2@@Nan@@QAE@XZ 10001b10 f i serialport.obj
 0001:00000b10       ??1?$Persistent@VObject@v8@@V?$NonCopyablePersistentTraits@VObject@v8@@@2@@Nan@@QAE@XZ 10001b10 f i serialport_win.obj
 0001:00000b50       ??0VoidBaton@@QAE@XZ       10001b50 f i serialport.obj
 0001:00000bf0       ?getValueFromObject@@YA?AV?$Local@VValue@v8@@@v8@@V?$Local@VObject@v8@@@2@V?$basic_string@DU?$char_traits@D@std@@V?$allocator@D@2@@std@@@Z 10001bf0 f   serialport.obj
 0001:00000d20       ?getIntFromObject@@YAHV?$Local@VObject@v8@@@v8@@V?$basic_string@DU?$char_traits@D@std@@V?$allocator@D@2@@std@@@Z 10001d20 f   serialport.obj
 0001:00000e40       ?getBoolFromObject@@YA_NV?$Local@VObject@v8@@@v8@@V?$basic_string@DU?$char_traits@D@std@@V?$allocator@D@2@@std@@@Z 10001e40 f   serialport.obj
 0001:00000f60       ?Open@@YAXABV?$FunctionCallbackInfo@VValue@v8@@@Nan@@@Z 10001f60 f   serialport.obj
 0001:000017a0       ?EIO_AfterOpen@@YAXPAUuv_work_s@@@Z 100027a0 f   serialport.obj
 0001:00001950       ?Update@@YAXABV?$FunctionCallbackInfo@VValue@v8@@@Nan@@@Z 10002950 f   serialport.obj
 0001:00001cf0       ?EIO_AfterUpdate@@YAXPAUuv_work_s@@@Z 10002cf0 f   serialport.obj
 0001:00001e20       ?Close@@YAXABV?$FunctionCallbackInfo@VValue@v8@@@Nan@@@Z 10002e20 f   serialport.obj
 0001:00002010       ?EIO_AfterFlush@@YAXPAUuv_work_s@@@Z 10003010 f   serialport.obj
 0001:00002010       ?EIO_AfterDrain@@YAXPAUuv_work_s@@@Z 10003010 f   serialport.obj
 0001:00002010       ?EIO_AfterClose@@YAXPAUuv_work_s@@@Z 10003010 f   serialport.obj
 0001:00002130       ?Flush@@YAXABV?$FunctionCallbackInfo@VValue@v8@@@Nan@@@Z 10003130 f   serialport.obj
 0001:00002300       ?Set@@YAXABV?$FunctionCallbackInfo@VValue@v8@@@Nan@@@Z 10003300 f   serialport.obj
 0001:00002770       ?EIO_AfterSet@@YAXPAUuv_work_s@@@Z 10003770 f   serialport.obj
 0001:00002890       ?Get@@YAXABV?$FunctionCallbackInfo@VValue@v8@@@Nan@@@Z 10003890 f   serialport.obj
 0001:00002ac0       ?EIO_AfterGet@@YAXPAUuv_work_s@@@Z 10003ac0 f   serialport.obj
 0001:00002e60       ?GetBaudRate@@YAXABV?$FunctionCallbackInfo@VValue@v8@@@Nan@@@Z 10003e60 f   serialport.obj
 0001:00003090       ?EIO_AfterGetBaudRate@@YAXPAUuv_work_s@@@Z 10004090 f   serialport.obj
 0001:00003260       ?Drain@@YAXABV?$FunctionCallbackInfo@VValue@v8@@@Nan@@@Z 10004260 f   serialport.obj
 0001:00003430       ?init@@YAXV?$Local@VObject@v8@@@v8@@@Z 10004430 f   serialport.obj
 0001:00003580       ??1?$Persistent@VObject@v8@@V?$NonCopyablePersistentTraits@VObject@v8@@@2@@v8@@QAE@XZ 10004580 f i serialport_win.obj
 0001:00003580       ??1?$Persistent@VFunction@v8@@V?$NonCopyablePersistentTraits@VFunction@v8@@@2@@v8@@QAE@XZ 10004580 f i serialport.obj
 0001:000035c0       ??1?$basic_string@DU?$char_traits@D@std@@V?$allocator@D@2@@std@@QAE@XZ 100045c0 f i serialport.obj
 0001:00003640       ??0?$basic_string@DU?$char_traits@D@std@@V?$allocator@D@2@@std@@QAE@ABV01@@Z 10004640 f i serialport.obj
 0001:00003700       ?assign@?$basic_string@DU?$char_traits@D@std@@V?$allocator@D@2@@std@@QAEAAV12@QBD@Z 10004700 f i serialport.obj
 0001:00003830       ??$New@VString@v8@@V?$basic_string@DU?$char_traits@D@std@@V?$allocator@D@2@@std@@@Nan@@YA?AV?$MaybeLocal@VString@v8@@@v8@@V?$basic_string@DU?$char_traits@D@std@@V?$allocator@D@2@@std@@@Z 10004830 f i serialport.obj
 0001:00003910       ??$New@VInteger@v8@@H@Nan@@YA?AV?$Local@VInteger@v8@@@v8@@H@Z 10004910 f i serialport.obj
 0001:000039c0       ??$SetMethod@VObject@v8@@VLocal@2@@Nan@@YAXV?$Local@VObject@v8@@@v8@@PBDP6AXABV?$FunctionCallbackInfo@VValue@v8@@@0@@ZV?$Local@VValue@v8@@@2@@Z 100049c0 f i serialport.obj
 0001:00003a80       ??$SetMethodAux@V?$Local@VObject@v8@@@v8@@@imp@Nan@@YAXV?$Local@VObject@v8@@@v8@@V?$Local@VString@v8@@@3@V?$Local@VFunctionTemplate@v8@@@3@ZZ 10004a80 f i serialport.obj
 0001:00003b70       __snprintf_s               10004b70 f i serialport_win.obj
 0001:00003bc0       ?ErrorCodeToString@@YAXPBDHPAD@Z 10004bc0 f   serialport_win.obj
 0001:00003c80       ?AsyncCloseCallback@@YAXPAUuv_handle_s@@@Z 10004c80 f   serialport_win.obj
 0001:00003c90       ?EIO_Open@@YAXPAUuv_work_s@@@Z 10004c90 f   serialport_win.obj
 0001:00003fd0       ?EIO_Update@@YAXPAUuv_work_s@@@Z 10004fd0 f   serialport_win.obj
 0001:00004080       ?EIO_Set@@YAXPAUuv_work_s@@@Z 10005080 f   serialport_win.obj
 0001:00004140       ?EIO_Get@@YAXPAUuv_work_s@@@Z 10005140 f   serialport_win.obj
 0001:000041b0       ?EIO_GetBaudRate@@YAXPAUuv_work_s@@@Z 100051b0 f   serialport_win.obj
 0001:00004250       ?Write@@YAXABV?$FunctionCallbackInfo@VValue@v8@@@Nan@@@Z 10005250 f   serialport_win.obj
 0001:000045e0       ?WriteIOCompletion@@YGXKKPAU_OVERLAPPED@@@Z 100055e0 f   serialport_win.obj
 0001:00004640       ?WriteThread@@YGKPAX@Z     10005640 f   serialport_win.obj
 0001:00004700       ?EIO_AfterWrite@@YAXPAUuv_async_s@@@Z 10005700 f   serialport_win.obj
 0001:00004860       ?Read@@YAXABV?$FunctionCallbackInfo@VValue@v8@@@Nan@@@Z 10005860 f   serialport_win.obj
 0001:00004d20       ?ReadIOCompletion@@YGXKKPAU_OVERLAPPED@@@Z 10005d20 f   serialport_win.obj
 0001:00004f00       ?ReadThread@@YGKPAX@Z      10005f00 f   serialport_win.obj
 0001:00005020       ?EIO_AfterRead@@YAXPAUuv_async_s@@@Z 10006020 f   serialport_win.obj
 0001:000051b0       ?EIO_Close@@YAXPAUuv_work_s@@@Z 100061b0 f   serialport_win.obj
 0001:000052b0       ?List@@YAXABV?$FunctionCallbackInfo@VValue@v8@@@Nan@@@Z 100062b0 f   serialport_win.obj
 0001:00005450       ?getSerialNumber@@YAXPBD0QAXU_SP_DEVINFO_DATA@@IPAD@Z 10006450 f   serialport_win.obj
 0001:00005750       ?EIO_List@@YAXPAUuv_work_s@@@Z 10006750 f   serialport_win.obj
 0001:00005d10       ?setIfNotEmpty@@YAXV?$Local@VObject@v8@@@v8@@V?$basic_string@DU?$char_traits@D@std@@V?$allocator@D@2@@std@@PBD@Z 10006d10 f   serialport_win.obj
 0001:00005e90       ?EIO_AfterList@@YAXPAUuv_work_s@@@Z 10006e90 f   serialport_win.obj
 0001:000062d0       ??1ListResultItem@@QAE@XZ  100072d0 f i serialport_win.obj
 0001:00006530       ?EIO_Flush@@YAXPAUuv_work_s@@@Z 10007530 f   serialport_win.obj
 0001:00006570       ?EIO_Drain@@YAXPAUuv_work_s@@@Z 10007570 f   serialport_win.obj
 0001:000065a0       ??1?$list@PAUListResultItem@@V?$allocator@PAUListResultItem@@@std@@@std@@QAE@XZ 100075a0 f i serialport_win.obj
 0001:00006610       ??1?$_List_node_emplace_op2@V?$allocator@U?$_List_node@PAUListResultItem@@PAX@std@@@std@@@std@@QAE@XZ 10007610 f i serialport_win.obj
 0001:00006610       ??1?$_List_node_emplace_op2@V?$allocator@U?$_List_node@HPAX@std@@@std@@@std@@QAE@XZ 10007610 f i serialport_win.obj
 0001:00006660       ??1?$_Alloc_construct_ptr@V?$allocator@U?$_List_node@PAUListResultItem@@PAX@std@@@std@@@std@@QAE@XZ 10007660 f i serialport_win.obj
 0001:00006660       ??1?$_Alloc_construct_ptr@V?$allocator@U?$_List_node@HPAX@std@@@std@@@std@@QAE@XZ 10007660 f i serialport_win.obj
 0001:000066de       __imp_load__uv_queue_work  100076de f   node:node.exe
 0001:000066e8       __tailMerge_node_exe       100076e8     node:node.exe
 0001:000066f9       __imp_load_?Global@Context@v8@@QAE?AV?$Local@VObject@v8@@@2@XZ 100076f9 f   node:node.exe
 0001:00006703       __imp_load_?Value@External@v8@@QBEPAXXZ 10007703 f   node:node.exe
 0001:0000670d       __imp_load_?New@External@v8@@SA?AV?$Local@VExternal@v8@@@2@PAVIsolate@2@PAX@Z 1000770d f   node:node.exe
 0001:00006717       __imp_load_?New@Integer@v8@@SA?AV?$Local@VInteger@v8@@@2@PAVIsolate@2@H@Z 10007717 f   node:node.exe
 0001:00006721       __imp_load_?ThrowException@Isolate@v8@@QAE?AV?$Local@VValue@v8@@@2@V32@@Z 10007721 f   node:node.exe
 0001:0000672b       __imp_load_?GetCurrentContext@Isolate@v8@@QAE?AV?$Local@VContext@v8@@@2@XZ 1000772b f   node:node.exe
 0001:00006735       __imp_load_?GetCurrent@Isolate@v8@@SAPAV12@XZ 10007735 f   node:node.exe
 0001:0000673f       __imp_load_?CreateHandle@HandleScope@v8@@KAPAPAVObject@internal@2@PAVIsolate@42@PAV342@@Z 1000773f f   node:node.exe
 0001:00006749       __imp_load_?CreateHandle@HandleScope@v8@@CAPAPAVObject@internal@2@PAVHeapObject@42@PAV342@@Z 10007749 f   node:node.exe
 0001:00006753       __imp_load_??1HandleScope@v8@@QAE@XZ 10007753 f   node:node.exe
 0001:0000675d       __imp_load_??0HandleScope@v8@@QAE@PAVIsolate@1@@Z 1000775d f   node:node.exe
 0001:00006767       __imp_load_?Error@Exception@v8@@SA?AV?$Local@VValue@v8@@@2@V?$Local@VString@v8@@@2@@Z 10007767 f   node:node.exe
 0001:00006771       __imp_load_?TypeError@Exception@v8@@SA?AV?$Local@VValue@v8@@@2@V?$Local@VString@v8@@@2@@Z 10007771 f   node:node.exe
 0001:0000677b       __imp_load_?SetClassName@FunctionTemplate@v8@@QAEXV?$Local@VString@v8@@@2@@Z 1000777b f   node:node.exe
 0001:00006785       __imp_load_?GetFunction@FunctionTemplate@v8@@QAE?AV?$MaybeLocal@VFunction@v8@@@2@V?$Local@VContext@v8@@@2@@Z 10007785 f   node:node.exe
 0001:0000678f       __imp_load_?New@FunctionTemplate@v8@@SA?AV?$Local@VFunctionTemplate@v8@@@2@PAVIsolate@2@P6AXABV?$FunctionCallbackInfo@VValue@v8@@@2@@ZV?$Local@VValue@v8@@@2@V?$Local@VSignature@v8@@@2@HW4ConstructorBehavior@2@W4SideEffectType@2@@Z 1000778f f   node:node.exe
 0001:00006799       __imp_load_?Value@Boolean@v8@@QBE_NXZ 10007799 f   node:node.exe
 0001:000067a3       __imp_load_?ToLocalEmpty@V8@v8@@CAXXZ 100077a3 f   node:node.exe
 0001:000067ad       __imp_load_?DisposeGlobal@V8@v8@@CAXPAPAVObject@internal@2@@Z 100077ad f   node:node.exe
 0001:000067b7       __imp_load_?GlobalizeReference@V8@v8@@CAPAPAVObject@internal@2@PAVIsolate@42@PAPAV342@@Z 100077b7 f   node:node.exe
 0001:000067c1       __imp_load_?Int32Value@Value@v8@@QBE?AV?$Maybe@H@2@V?$Local@VContext@v8@@@2@@Z 100077c1 f   node:node.exe
 0001:000067cb       __imp_load_?NumberValue@Value@v8@@QBE?AV?$Maybe@N@2@V?$Local@VContext@v8@@@2@@Z 100077cb f   node:node.exe
 0001:000067d5       __imp_load_?ToInt32@Value@v8@@QBE?AV?$MaybeLocal@VInt32@v8@@@2@V?$Local@VContext@v8@@@2@@Z 100077d5 f   node:node.exe
 0001:000067df       __imp_load_?ToInteger@Value@v8@@QBE?AV?$MaybeLocal@VInteger@v8@@@2@V?$Local@VContext@v8@@@2@@Z 100077df f   node:node.exe
 0001:000067e9       __imp_load_?ToObject@Value@v8@@QBE?AV?$MaybeLocal@VObject@v8@@@2@V?$Local@VContext@v8@@@2@@Z 100077e9 f   node:node.exe
 0001:000067f3       __imp_load_?ToString@Value@v8@@QBE?AV?$MaybeLocal@VString@v8@@@2@V?$Local@VContext@v8@@@2@@Z 100077f3 f   node:node.exe
 0001:000067fd       __imp_load_?ToBoolean@Value@v8@@QBE?AV?$MaybeLocal@VBoolean@v8@@@2@V?$Local@VContext@v8@@@2@@Z 100077fd f   node:node.exe
 0001:00006807       __imp_load_?IsInt32@Value@v8@@QBE_NXZ 10007807 f   node:node.exe
 0001:00006811       __imp_load_?IsObject@Value@v8@@QBE_NXZ 10007811 f   node:node.exe
 0001:0000681b       __imp_load_?IsFunction@Value@v8@@QBE_NXZ 1000781b f   node:node.exe
 0001:00006825       __imp_load_?Escape@EscapableHandleScope@v8@@AAEPAPAVObject@internal@2@PAPAV342@@Z 10007825 f   node:node.exe
 0001:0000682f       __imp_load_??0EscapableHandleScope@v8@@QAE@PAVIsolate@1@@Z 1000782f f   node:node.exe
 0001:00006839       __imp_load_?NewFromUtf8@String@v8@@SA?AV?$MaybeLocal@VString@v8@@@2@PAVIsolate@2@PBDW4NewStringType@2@H@Z 10007839 f   node:node.exe
 0001:00006843       __imp_load_?WriteUtf8@String@v8@@QBEHPADHPAHH@Z 10007843 f   node:node.exe
 0001:0000684d       __imp_load_?Length@String@v8@@QBEHXZ 1000784d f   node:node.exe
 0001:00006857       __imp_load_?Value@Int32@v8@@QBEHXZ 10007857 f   node:node.exe
 0001:00006861       __imp_load_?SlowGetInternalField@Object@v8@@AAE?AV?$Local@VValue@v8@@@2@H@Z 10007861 f   node:node.exe
 0001:0000686b       __imp_load_?New@Object@v8@@SA?AV?$Local@VObject@v8@@@2@PAVIsolate@2@@Z 1000786b f   node:node.exe
 0001:00006875       __imp_load_?SetInternalField@Object@v8@@QAEXHV?$Local@VValue@v8@@@2@@Z 10007875 f   node:node.exe
 0001:0000687f       __imp_load_?Has@Object@v8@@QAE?AV?$Maybe@_N@2@V?$Local@VContext@v8@@@2@V?$Local@VValue@v8@@@2@@Z 1000787f f   node:node.exe
 0001:00006889       __imp_load_?Get@Object@v8@@QAE?AV?$MaybeLocal@VValue@v8@@@2@V?$Local@VContext@v8@@@2@V?$Local@VValue@v8@@@2@@Z 10007889 f   node:node.exe
 0001:00006893       __imp_load_?Set@Object@v8@@QAE?AV?$Maybe@_N@2@V?$Local@VContext@v8@@@2@V?$Local@VValue@v8@@@2@1@Z 10007893 f   node:node.exe
 0001:0000689d       __imp_load_?SetInternalFieldCount@ObjectTemplate@v8@@QAEXH@Z 1000789d f   node:node.exe
 0001:000068a7       __imp_load_?NewInstance@ObjectTemplate@v8@@QAE?AV?$MaybeLocal@VObject@v8@@@2@V?$Local@VContext@v8@@@2@@Z 100078a7 f   node:node.exe
 0001:000068b1       __imp_load_?New@ObjectTemplate@v8@@SA?AV?$Local@VObjectTemplate@v8@@@2@PAVIsolate@2@V?$Local@VFunctionTemplate@v8@@@2@@Z 100078b1 f   node:node.exe
 0001:000068bb       __imp_load_?EmitAsyncDestroy@node@@YAXPAVIsolate@v8@@Uasync_context@1@@Z 100078bb f   node:node.exe
 0001:000068c5       __imp_load__node_module_register 100078c5 f   node:node.exe
 0001:000068cf       __imp_load_?MakeCallback@node@@YA?AV?$MaybeLocal@VValue@v8@@@v8@@PAVIsolate@3@V?$Local@VObject@v8@@@3@V?$Local@VFunction@v8@@@3@HPAV?$Local@VValue@v8@@@3@Uasync_context@1@@Z 100078cf f   node:node.exe
 0001:000068d9       __imp_load_?EmitAsyncInit@node@@YA?AUasync_context@1@PAVIsolate@v8@@V?$Local@VObject@v8@@@4@V?$Local@VString@v8@@@4@N@Z 100078d9 f   node:node.exe
 0001:000068e3       __imp_load__uv_default_loop 100078e3 f   node:node.exe
 0001:000068ed       __imp_load_??1EscapableHandleScope@v8@@QAE@XZ 100078ed f   node:node.exe
 0001:000068f7       __imp_load_?New@Array@v8@@SA?AV?$Local@VArray@v8@@@2@PAVIsolate@2@H@Z 100078f7 f   node:node.exe
 0001:00006901       __imp_load_?Set@Object@v8@@QAE?AV?$Maybe@_N@2@V?$Local@VContext@v8@@@2@IV?$Local@VValue@v8@@@2@@Z 10007901 f   node:node.exe
 0001:0000690b       __imp_load__uv_close       1000790b f   node:node.exe
 0001:00006915       __imp_load_?HasInstance@Buffer@node@@YA_NV?$Local@VValue@v8@@@v8@@@Z 10007915 f   node:node.exe
 0001:0000691f       __imp_load_?Data@Buffer@node@@YAPADV?$Local@VObject@v8@@@v8@@@Z 1000791f f   node:node.exe
 0001:00006929       __imp_load_?Length@Buffer@node@@YAIV?$Local@VObject@v8@@@v8@@@Z 10007929 f   node:node.exe
 0001:00006933       __imp_load__uv_async_send  10007933 f   node:node.exe
 0001:0000693d       __imp_load__uv_async_init  1000793d f   node:node.exe
 0001:00006947       ??0bad_alloc@std@@QAE@ABV01@@Z 10007947 f i libcpmt:xthrow.obj
 0001:00006962       ??0bad_alloc@std@@QAE@XZ   10007962 f i libcpmt:xthrow.obj
 0001:0000697a       ??0exception@std@@QAE@ABV01@@Z 1000797a f i libcpmt:xthrow.obj
 0001:000069a6       ??0exception@std@@QAE@QBD@Z 100079a6 f i libcpmt:xthrow.obj
 0001:000069db       ??0length_error@std@@QAE@ABV01@@Z 100079db f i libcpmt:xthrow.obj
 0001:000069f6       ??0length_error@std@@QAE@PBD@Z 100079f6 f i libcpmt:xthrow.obj
 0001:00006a15       ??0logic_error@std@@QAE@ABV01@@Z 10007a15 f i libcpmt:xthrow.obj
 0001:00006a30       ??1bad_alloc@std@@UAE@XZ   10007a30 f i libcpmt:xthrow.obj
 0001:00006a30       ??1bad_array_new_length@std@@UAE@XZ 10007a30 f i LIBCMT:throw_bad_alloc.obj
 0001:00006a30       ??1bad_exception@std@@UAE@XZ 10007a30 f i libvcruntime:frame.obj
 0001:00006a30       ??1length_error@std@@UAE@XZ 10007a30 f i libcpmt:xthrow.obj
 0001:00006a41       ??_Elogic_error@std@@UAEPAXI@Z 10007a41 f i libcpmt:xthrow.obj
 0001:00006a41       ??_Gbad_exception@std@@UAEPAXI@Z 10007a41 f i libvcruntime:frame.obj
 0001:00006a41       ??_Elength_error@std@@UAEPAXI@Z 10007a41 f i libcpmt:xthrow.obj
 0001:00006a41       ??_Gbad_alloc@std@@UAEPAXI@Z 10007a41 f i libcpmt:xthrow.obj
 0001:00006a41       ??_Ebad_alloc@std@@UAEPAXI@Z 10007a41 f i libcpmt:xthrow.obj
 0001:00006a41       ??_Glength_error@std@@UAEPAXI@Z 10007a41 f i libcpmt:xthrow.obj
 0001:00006a41       ??_Eexception@std@@UAEPAXI@Z 10007a41 f i libcpmt:xthrow.obj
 0001:00006a41       ??_Gbad_array_new_length@std@@UAEPAXI@Z 10007a41 f i LIBCMT:throw_bad_alloc.obj
 0001:00006a41       ??_Ebad_array_new_length@std@@UAEPAXI@Z 10007a41 f i LIBCMT:throw_bad_alloc.obj
 0001:00006a41       ??_Ebad_exception@std@@UAEPAXI@Z 10007a41 f i libvcruntime:frame.obj
 0001:00006a41       ??_Glogic_error@std@@UAEPAXI@Z 10007a41 f i libcpmt:xthrow.obj
 0001:00006a41       ??_Gexception@std@@UAEPAXI@Z 10007a41 f i libcpmt:xthrow.obj
 0001:00006a6e       ?_Xlength_error@std@@YAXPBD@Z 10007a6e f   libcpmt:xthrow.obj
 0001:00006a8e       ?what@exception@std@@UBEPBDXZ 10007a8e f i libcpmt:xthrow.obj
 0001:00006a9b       @__security_check_cookie@4 10007a9b f   LIBCMT:secchk.obj
 0001:00006aa9       ??2@YAPAXI@Z               10007aa9 f   LIBCMT:new_scalar.obj
 0001:00006ad9       ??3@YAXPAXI@Z              10007ad9 f   LIBCMT:delete_scalar_size.obj
 0001:00006ae7       ___raise_securityfailure   10007ae7 f   LIBCMT:gs_report.obj
 0001:00006b0f       ___report_gsfailure        10007b0f f   LIBCMT:gs_report.obj
 0001:00006c09       ___report_rangecheckfailure 10007c09 f   LIBCMT:gs_report.obj
 0001:00006c15       ___report_securityfailure  10007c15 f   LIBCMT:gs_report.obj
 0001:00006d28       ___scrt_acquire_startup_lock 10007d28 f   LIBCMT:utility.obj
 0001:00006d5a       ___scrt_dllmain_after_initialize_c 10007d5a f   LIBCMT:utility.obj
 0001:00006d85       ___scrt_dllmain_before_initialize_c 10007d85 f   LIBCMT:utility.obj
 0001:00006d93       ___scrt_dllmain_crt_thread_attach 10007d93 f   LIBCMT:utility.obj
 0001:00006db2       ___scrt_dllmain_crt_thread_detach 10007db2 f   LIBCMT:utility.obj
 0001:00006dbf       ___scrt_dllmain_exception_filter 10007dbf f   LIBCMT:utility.obj
 0001:00006df3       ___scrt_dllmain_uninitialize_c 10007df3 f   LIBCMT:utility.obj
 0001:00006e16       ___scrt_dllmain_uninitialize_critical 10007e16 f   LIBCMT:utility.obj
 0001:00006e23       ___scrt_initialize_crt     10007e23 f   LIBCMT:utility.obj
 0001:00006e5c       ___scrt_initialize_onexit_tables 10007e5c f   LIBCMT:utility.obj
 0001:00006ee3       ___scrt_is_nonwritable_in_current_image 10007ee3 f   LIBCMT:utility.obj
 0001:00006f77       ___scrt_release_startup_lock 10007f77 f   LIBCMT:utility.obj
 0001:00006f94       ___scrt_uninitialize_crt   10007f94 f   LIBCMT:utility.obj
 0001:00006fbc       __onexit                   10007fbc f   LIBCMT:utility.obj
 0001:00006fe9       _atexit                    10007fe9 f   LIBCMT:utility.obj
 0001:0000733e       __DllMainCRTStartup@12     1000833e f   LIBCMT:dll_dllmain.obj
 0001:00007361       ??_Etype_info@@UAEPAXI@Z   10008361 f i LIBCMT:std_type_info_static.obj
 0001:00007361       ??_Gtype_info@@UAEPAXI@Z   10008361 f i LIBCMT:std_type_info_static.obj
 0001:00007384       ??0bad_array_new_length@std@@QAE@ABV01@@Z 10008384 f i LIBCMT:throw_bad_alloc.obj
 0001:0000739f       ??0bad_array_new_length@std@@QAE@XZ 1000839f f i LIBCMT:throw_bad_alloc.obj
 0001:000073b7       ?__scrt_throw_std_bad_alloc@@YAXXZ 100083b7 f   LIBCMT:throw_bad_alloc.obj
 0001:000073d4       ?__scrt_throw_std_bad_array_new_length@@YAXXZ 100083d4 f   LIBCMT:throw_bad_alloc.obj
 0001:000073f1       ??3@YAXPAX@Z               100083f1 f   LIBCMT:delete_scalar.obj
 0001:000073f6       ___isa_available_init      100083f6 f   LIBCMT:cpu_disp.obj
 0001:000075c7       __get_startup_argv_mode    100085c7 f   LIBCMT:argv_mode.obj
 0001:000075cb       ___scrt_is_ucrt_dll_in_use 100085cb f   LIBCMT:ucrt_detection.obj
 0001:000075d7       ___scrt_fastfail           100085d7 f   LIBCMT:utility_desktop.obj
 0001:000076f2       __crt_debugger_hook        100086f2 f   LIBCMT:utility_desktop.obj
 0001:00007700       __SEH_prolog4              10008700 f   LIBCMT:sehprolg4.obj
 0001:00007792       ___security_init_cookie    10008792 f   LIBCMT:gs_support.obj
 0001:000077dd       _DllMain@12                100087dd f   LIBCMT:dll_dllmain_stub.obj
 0001:000077e3       ?__scrt_initialize_type_info@@YAXXZ 100087e3 f   LIBCMT:tncleanup.obj
 0001:000077ef       ?__scrt_uninitialize_type_info@@YAXXZ 100087ef f   LIBCMT:tncleanup.obj
 0001:000077fb       ___local_stdio_scanf_options 100087fb f i LIBCMT:default_local_stdio_options.obj
 0001:00007801       ___scrt_initialize_default_local_stdio_options 10008801 f   LIBCMT:default_local_stdio_options.obj
 0001:0000781e       ___scrt_get_dyn_tls_init_callback 1000881e f   LIBCMT:dyn_tls_init.obj
 0001:00007824       __RTC_Initialize           10008824 f   LIBCMT:initsect.obj
 0001:00007850       __RTC_Terminate            10008850 f   LIBCMT:initsect.obj
 0001:0000787c       ?GetRangeOfTrysToCheck@__FrameHandler3@@SA?AU?$pair@Viterator@TryBlockMap@__FrameHandler3@@V123@@std@@AAVTryBlockMap@1@HPAXPBU_s_FuncInfo@@H@Z 1000887c f   libvcruntime:trnsctrl.obj
 0001:000078ec       ?_CallCatchBlock2@@YAPAXPAUEHRegistrationNode@@PBU_s_FuncInfo@@PAXHK@Z 100088ec f   libvcruntime:trnsctrl.obj
 0001:00007949       ?_CallSETranslator@@YAHPAUEHExceptionRecord@@PAUEHRegistrationNode@@PAX2PBU_s_FuncInfo@@H1@Z 10008949 f   libvcruntime:trnsctrl.obj
 0001:00007a3f       ?_JumpToContinuation@@YGXPAXPAUEHRegistrationNode@@@Z 10008a3f f   libvcruntime:trnsctrl.obj
 0001:00007a6f       ?_UnwindNestedFrames@@YGXPAUEHRegistrationNode@@PAUEHExceptionRecord@@@Z 10008a6f f   libvcruntime:trnsctrl.obj
 0001:00007ac2       __CatchGuardHandler        10008ac2 f   libvcruntime:trnsctrl.obj
 0001:00007af3       __CreateFrameInfo          10008af3 f   libvcruntime:trnsctrl.obj
 0001:00007b17       __FindAndUnlinkFrame       10008b17 f   libvcruntime:trnsctrl.obj
 0001:00007b5f       __TranslatorGuardHandler   10008b5f f   libvcruntime:trnsctrl.obj
 0001:00007bfc       ___CxxFrameHandler3        10008bfc f   libvcruntime:trnsctrl.obj
 0001:00007c40       _strstr                    10008c40 f   libvcruntime:strstr.obj
 0001:00007eab       ___std_exception_copy      10008eab f   libvcruntime:std_exception.obj
 0001:00007f0e       ___std_exception_destroy   10008f0e f   libvcruntime:std_exception.obj
 0001:00007f2d       __CxxThrowException@8      10008f2d f   libvcruntime:throw.obj
 0001:00007f99       ___vcrt_initialize         10008f99 f   libvcruntime:initialization.obj
 0001:00007fb8       ___vcrt_thread_attach      10008fb8 f   libvcruntime:initialization.obj
 0001:00007fc3       ___vcrt_thread_detach      10008fc3 f   libvcruntime:initialization.obj
 0001:00007fce       ___vcrt_uninitialize       10008fce f   libvcruntime:initialization.obj
 0001:00007fe5       ___vcrt_uninitialize_critical 10008fe5 f   libvcruntime:initialization.obj
 0001:00008030       __except_handler4          10009030 f   libvcruntime:chandler4.obj
 0001:0000818e       ___DestructExceptionObject 1000918e f   libvcruntime:ehhelpers.obj
 0001:0000822f       ?_CallMemberFunction0@@YGXQAX0@Z 1000922f f i libvcruntime:ehhelpers.obj
 0001:00008294       __IsExceptionObjectToBeDestroyed 10009294 f   libvcruntime:ehhelpers.obj
 0001:000082ba       ___AdjustPointer           100092ba f   libvcruntime:ehhelpers.obj
 0001:000082df       ___FrameUnwindFilter       100092df f   libvcruntime:ehhelpers.obj
 0001:00008340       _memset                    10009340 f   libvcruntime:memset.obj
 0001:0000849a       ___std_type_info_compare   1000949a f   libvcruntime:std_type_info.obj
 0001:000084d6       ___std_type_info_destroy_list 100094d6 f   libvcruntime:std_type_info.obj
 0001:000084f9       ___vcrt_freefls@4          100094f9 f   libvcruntime:per_thread_data.obj
 0001:00008515       ___vcrt_freeptd            10009515 f   libvcruntime:per_thread_data.obj
 0001:0000854b       ___vcrt_getptd             1000954b f   libvcruntime:per_thread_data.obj
 0001:00008559       ___vcrt_getptd_noexit      10009559 f   libvcruntime:per_thread_data.obj
 0001:000085eb       ___vcrt_initialize_ptd     100095eb f   libvcruntime:per_thread_data.obj
 0001:0000861e       ___vcrt_uninitialize_ptd   1000961e f   libvcruntime:per_thread_data.obj
 0001:00008d70       ??$TypeMatchHelper@V__FrameHandler3@@@@YAHPBU_s_HandlerType@@PBU_s_CatchableType@@PBU_s_ThrowInfo@@@Z 10009d70 f i libvcruntime:frame.obj
 0001:00008dfe       ??$__InternalCxxFrameHandler@V__FrameHandler3@@@@YA?AW4_EXCEPTION_DISPOSITION@@PAUEHExceptionRecord@@PAUEHRegistrationNode@@PAU_CONTEXT@@PAXPBU_s_FuncInfo@@H1E@Z 10009dfe f i libvcruntime:frame.obj
 0001:00008f00       ??0bad_exception@std@@QAE@ABV01@@Z 10009f00 f i libvcruntime:frame.obj
 0001:00008f1b       ??0bad_exception@std@@QAE@XZ 10009f1b f i libvcruntime:frame.obj
 0001:00008f33       ??8type_info@@QBE_NABV0@@Z 10009f33 f i libvcruntime:frame.obj
 0001:0000919f       ?FrameUnwindToEmptyState@__FrameHandler3@@SAXPAUEHRegistrationNode@@PAXPBU_s_FuncInfo@@@Z 1000a19f f   libvcruntime:frame.obj
 0001:000091b7       ?FrameUnwindToState@__FrameHandler3@@SAXPAUEHRegistrationNode@@PAXPBU_s_FuncInfo@@H@Z 1000a1b7 f   libvcruntime:frame.obj
 0001:00009339       ?_CallMemberFunction1@@YGXQAX00@Z 1000a339 f i libvcruntime:frame.obj
 0001:00009349       ?_CallMemberFunction2@@YGXQAX00H@Z 1000a349 f i libvcruntime:frame.obj
 0001:0000935c       ?getESTypes@__FrameHandler3@@SAPBU_s_ESTypeList@@PBU_s_FuncInfo@@@Z 1000a35c f i libvcruntime:frame.obj
 0001:00009370       __CallSettingFrame@12      1000a370 f   libvcruntime:lowhelpr.obj
 0001:00009397       __NLG_Return               1000a397     libvcruntime:lowhelpr.obj
 0001:000093bc       ___except_validate_context_record 1000a3bc f   libvcruntime:jbcxrval.obj
 0001:000093f0       _strchr                    1000a3f0 f   libvcruntime:strchr.obj
 0001:0000945e       ___from_strstr_to_strchr   1000a45e     libvcruntime:strchr.obj
 0001:0000951b       ___vcrt_initialize_locks   1000a51b f   libvcruntime:locks.obj
 0001:00009557       ___vcrt_uninitialize_locks 1000a557 f   libvcruntime:locks.obj
 0001:00009590       __local_unwind4            1000a590 f   libvcruntime:exsup4.obj
 0001:00009680       @_EH4_CallFilterFunc@8     1000a680 f   libvcruntime:exsup4.obj
 0001:000096a0       @_EH4_TransferToHandler@8  1000a6a0 f   libvcruntime:exsup4.obj
 0001:000096c0       @_EH4_GlobalUnwind2@8      1000a6c0 f   libvcruntime:exsup4.obj
 0001:000096e0       @_EH4_LocalUnwind@16       1000a6e0 f   libvcruntime:exsup4.obj
 0001:000097da       ___vcrt_FlsAlloc           1000a7da f   libvcruntime:winapi_downlevel.obj
 0001:00009815       ___vcrt_FlsFree            1000a815 f   libvcruntime:winapi_downlevel.obj
 0001:00009850       ___vcrt_FlsGetValue        1000a850 f   libvcruntime:winapi_downlevel.obj
 0001:0000988b       ___vcrt_FlsSetValue        1000a88b f   libvcruntime:winapi_downlevel.obj
 0001:000098c9       ___vcrt_InitializeCriticalSectionEx 1000a8c9 f   libvcruntime:winapi_downlevel.obj
 0001:00009910       _unexpected                1000a910 f   libvcruntime:unexpected.obj
 0001:0000992d       ?GetCurrentState@__FrameHandler3@@SAHPAUEHRegistrationNode@@PAXPBU_s_FuncInfo@@@Z 1000a92d f   libvcruntime:ehstate.obj
 0001:0000994a       ?SetState@__FrameHandler3@@SAXPAUEHRegistrationNode@@PBU_s_FuncInfo@@H@Z 1000a94a f   libvcruntime:ehstate.obj
 0001:00009960       _memmove                   1000a960 f   libvcruntime:memmove.obj
 0001:00009960       _memcpy                    1000a960 f   libvcruntime:memcpy.obj
 0001:00009ee0       __NLG_Notify1              1000aee0 f   libvcruntime:exsup.obj
 0001:00009ef0       __NLG_Notify               1000aef0 f   libvcruntime:exsup.obj
 0001:00009f07       __NLG_Dispatch2            1000af07     libvcruntime:exsup.obj
 0001:00009f07       __NLG_Dispatch             1000af07     libvcruntime:exsup.obj
 0001:00009f10       __NLG_Call                 1000af10 f   libvcruntime:exsup.obj
 0001:00009f12       __NLG_Return2              1000af12     libvcruntime:exsup.obj
 0001:00009f20       ___acrt_call_reportfault   1000af20 f   libucrt:invalid_parameter.obj
 0001:0000a059       ___acrt_initialize_invalid_parameter_handler 1000b059 f   libucrt:invalid_parameter.obj
 0001:0000a068       __invalid_parameter        1000b068 f   libucrt:invalid_parameter.obj
 0001:0000a0cc       __invalid_parameter_noinfo 1000b0cc f   libucrt:invalid_parameter.obj
 0001:0000a0dc       __invalid_parameter_noinfo_noreturn 1000b0dc f   libucrt:invalid_parameter.obj
 0001:0000a0f9       __invoke_watson            1000b0f9 f   libucrt:invalid_parameter.obj
 0001:0000a70a       ??$count@D@formatting_buffer@__crt_stdio_output@@QBEIXZ 1000b70a f i libucrt:output.obj
 0001:0000a722       ??$count@_W@formatting_buffer@__crt_stdio_output@@QBEIXZ 1000b722 f i libucrt:output.obj
 0001:0000a73b       ??$ensure_buffer_is_big_enough@D@formatting_buffer@__crt_stdio_output@@QAE_NI@Z 1000b73b f i libucrt:output.obj
 0001:0000a7b8       ??$ensure_buffer_is_big_enough@_W@formatting_buffer@__crt_stdio_output@@QAE_NI@Z 1000b7b8 f i libucrt:output.obj
 0001:0000a836       ??$is_wide_character_specifier@D@__crt_stdio_output@@YA_N_KDW4length_modifier@0@@Z 1000b836 f i libucrt:output.obj
 0001:0000a867       ??$is_wide_character_specifier@_W@__crt_stdio_output@@YA_N_K_WW4length_modifier@0@@Z 1000b867 f i libucrt:output.obj
 0001:0000a8b5       ??$scratch_data@D@formatting_buffer@__crt_stdio_output@@QAEPADXZ 1000b8b5 f i libucrt:output.obj
 0001:0000a8d3       ??$type_case_integer_parse_into_buffer@I@?$output_processor@DV?$string_output_adapter@D@__crt_stdio_output@@V?$standard_base@DV?$string_output_adapter@D@__crt_stdio_output@@@2@@__crt_stdio_output@@AAEXII_N@Z 1000b8d3 f i libucrt:output.obj
 0001:0000a8d3       ??$type_case_integer_parse_into_buffer@I@?$output_processor@DV?$string_output_adapter@D@__crt_stdio_output@@V?$format_validation_base@DV?$string_output_adapter@D@__crt_stdio_output@@@2@@__crt_stdio_output@@AAEXII_N@Z 1000b8d3 f i libucrt:output.obj
 0001:0000a946       ??$type_case_integer_parse_into_buffer@I@?$output_processor@_WV?$stream_output_adapter@_W@__crt_stdio_output@@V?$standard_base@_WV?$stream_output_adapter@_W@__crt_stdio_output@@@2@@__crt_stdio_output@@AAEXII_N@Z 1000b946 f i libucrt:output.obj
 0001:0000a946       ??$type_case_integer_parse_into_buffer@I@?$output_processor@_WV?$string_output_adapter@_W@__crt_stdio_output@@V?$standard_base@_WV?$string_output_adapter@_W@__crt_stdio_output@@@2@@__crt_stdio_output@@AAEXII_N@Z 1000b946 f i libucrt:output.obj
 0001:0000a9cd       ??$type_case_integer_parse_into_buffer@_K@?$output_processor@DV?$string_output_adapter@D@__crt_stdio_output@@V?$format_validation_base@DV?$string_output_adapter@D@__crt_stdio_output@@@2@@__crt_stdio_output@@AAEX_KI_N@Z 1000b9cd f i libucrt:output.obj
 0001:0000a9cd       ??$type_case_integer_parse_into_buffer@_K@?$output_processor@DV?$string_output_adapter@D@__crt_stdio_output@@V?$standard_base@DV?$string_output_adapter@D@__crt_stdio_output@@@2@@__crt_stdio_output@@AAEX_KI_N@Z 1000b9cd f i libucrt:output.obj
 0001:0000aa5b       ??$type_case_integer_parse_into_buffer@_K@?$output_processor@_WV?$string_output_adapter@_W@__crt_stdio_output@@V?$standard_base@_WV?$string_output_adapter@_W@__crt_stdio_output@@@2@@__crt_stdio_output@@AAEX_KI_N@Z 1000ba5b f i libucrt:output.obj
 0001:0000aa5b       ??$type_case_integer_parse_into_buffer@_K@?$output_processor@_WV?$stream_output_adapter@_W@__crt_stdio_output@@V?$standard_base@_WV?$stream_output_adapter@_W@__crt_stdio_output@@@2@@__crt_stdio_output@@AAEX_KI_N@Z 1000ba5b f i libucrt:output.obj
 0001:0000aafd       ??$write_multiple_characters@V?$stream_output_adapter@_W@__crt_stdio_output@@D@__crt_stdio_output@@YAXABV?$stream_output_adapter@_W@0@DHQAH@Z 1000bafd f i libucrt:output.obj
 0001:0000ab3d       ??$write_multiple_characters@V?$string_output_adapter@D@__crt_stdio_output@@D@__crt_stdio_output@@YAXABV?$string_output_adapter@D@0@DHQAH@Z 1000bb3d f i libucrt:output.obj
 0001:0000ab69       ??$write_multiple_characters@V?$string_output_adapter@_W@__crt_stdio_output@@D@__crt_stdio_output@@YAXABV?$string_output_adapter@_W@0@DHQAH@Z 1000bb69 f i libucrt:output.obj
 0001:0000ab9a       ??0?$common_data@D@__crt_stdio_output@@IAE@XZ 1000bb9a f i libucrt:output.obj
 0001:0000abdf       ??0?$common_data@_W@__crt_stdio_output@@IAE@XZ 1000bbdf f i libucrt:output.obj
 0001:0000ac29       ??0?$output_adapter_data@DV?$string_output_adapter@D@__crt_stdio_output@@@__crt_stdio_output@@IAE@ABV?$string_output_adapter@D@1@_KQBDQAU__crt_locale_pointers@@QAD@Z 1000bc29 f i libucrt:output.obj
 0001:0000ac65       ??0?$output_adapter_data@_WV?$stream_output_adapter@_W@__crt_stdio_output@@@__crt_stdio_output@@IAE@ABV?$stream_output_adapter@_W@1@_KQB_WQAU__crt_locale_pointers@@QAD@Z 1000bc65 f i libucrt:output.obj
 0001:0000ac65       ??0?$output_adapter_data@_WV?$string_output_adapter@_W@__crt_stdio_output@@@__crt_stdio_output@@IAE@ABV?$string_output_adapter@_W@1@_KQB_WQAU__crt_locale_pointers@@QAD@Z 1000bc65 f i libucrt:output.obj
 0001:0000aca1       ??0_LocaleUpdate@@QAE@QAU__crt_locale_pointers@@@Z 1000bca1 f i libucrt:output.obj
 0001:0000ad24       ??1formatting_buffer@__crt_stdio_output@@QAE@XZ 1000bd24 f i libucrt:output.obj
 0001:0000ad3e       ??4?$__crt_unique_heap_ptr@DU__crt_internal_free_policy@@@@QAEAAV0@$$QAV0@@Z 1000bd3e f i libucrt:output.obj
 0001:0000ae30       ?crop_zeroes@__crt_stdio_output@@YAXPADQAU__crt_locale_pointers@@@Z 1000be30 f i libucrt:output.obj
 0001:0000aeb1       ?find_next_state@?$output_processor@DV?$string_output_adapter@D@__crt_stdio_output@@V?$format_validation_base@DV?$string_output_adapter@D@__crt_stdio_output@@@2@@__crt_stdio_output@@ABE?AW4state@2@DW432@@Z 1000beb1 f i libucrt:output.obj
 0001:0000aee8       ?find_next_state@?$output_processor@DV?$string_output_adapter@D@__crt_stdio_output@@V?$standard_base@DV?$string_output_adapter@D@__crt_stdio_output@@@2@@__crt_stdio_output@@ABE?AW4state@2@DW432@@Z 1000bee8 f i libucrt:output.obj
 0001:0000af1f       ?find_next_state@?$output_processor@_WV?$string_output_adapter@_W@__crt_stdio_output@@V?$standard_base@_WV?$string_output_adapter@_W@__crt_stdio_output@@@2@@__crt_stdio_output@@ABE?AW4state@2@_WW432@@Z 1000bf1f f i libucrt:output.obj
 0001:0000af1f       ?find_next_state@?$output_processor@_WV?$stream_output_adapter@_W@__crt_stdio_output@@V?$standard_base@_WV?$stream_output_adapter@_W@__crt_stdio_output@@@2@@__crt_stdio_output@@ABE?AW4state@2@_WW432@@Z 1000bf1f f i libucrt:output.obj
 0001:0000af60       ?force_decimal_point@__crt_stdio_output@@YAXPADQAU__crt_locale_pointers@@@Z 1000bf60 f i libucrt:output.obj
 0001:0000afc5       ?parse_int_from_format_string@?$output_processor@DV?$string_output_adapter@D@__crt_stdio_output@@V?$standard_base@DV?$string_output_adapter@D@__crt_stdio_output@@@2@@__crt_stdio_output@@AAE_NQAH@Z 1000bfc5 f i libucrt:output.obj
 0001:0000afc5       ?parse_int_from_format_string@?$output_processor@DV?$string_output_adapter@D@__crt_stdio_output@@V?$format_validation_base@DV?$string_output_adapter@D@__crt_stdio_output@@@2@@__crt_stdio_output@@AAE_NQAH@Z 1000bfc5 f i libucrt:output.obj
 0001:0000b039       ?parse_int_from_format_string@?$output_processor@_WV?$stream_output_adapter@_W@__crt_stdio_output@@V?$standard_base@_WV?$stream_output_adapter@_W@__crt_stdio_output@@@2@@__crt_stdio_output@@AAE_NQAH@Z 1000c039 f i libucrt:output.obj
 0001:0000b039       ?parse_int_from_format_string@?$output_processor@_WV?$string_output_adapter@_W@__crt_stdio_output@@V?$standard_base@_WV?$string_output_adapter@_W@__crt_stdio_output@@@2@@__crt_stdio_output@@AAE_NQAH@Z 1000c039 f i libucrt:output.obj
 0001:0000b0af       ?process@?$output_processor@DV?$string_output_adapter@D@__crt_stdio_output@@V?$format_validation_base@DV?$string_output_adapter@D@__crt_stdio_output@@@2@@__crt_stdio_output@@QAEHXZ 1000c0af f i libucrt:output.obj
 0001:0000b1d3       ?process@?$output_processor@DV?$string_output_adapter@D@__crt_stdio_output@@V?$standard_base@DV?$string_output_adapter@D@__crt_stdio_output@@@2@@__crt_stdio_output@@QAEHXZ 1000c1d3 f i libucrt:output.obj
 0001:0000b2e7       ?process@?$output_processor@_WV?$stream_output_adapter@_W@__crt_stdio_output@@V?$standard_base@_WV?$stream_output_adapter@_W@__crt_stdio_output@@@2@@__crt_stdio_output@@QAEHXZ 1000c2e7 f i libucrt:output.obj
 0001:0000b403       ?process@?$output_processor@_WV?$string_output_adapter@_W@__crt_stdio_output@@V?$standard_base@_WV?$string_output_adapter@_W@__crt_stdio_output@@@2@@__crt_stdio_output@@QAEHXZ 1000c403 f i libucrt:output.obj
 0001:0000b51f       ?state_case_flag@?$output_processor@DV?$string_output_adapter@D@__crt_stdio_output@@V?$format_validation_base@DV?$string_output_adapter@D@__crt_stdio_output@@@2@@__crt_stdio_output@@AAE_NXZ 1000c51f f i libucrt:output.obj
 0001:0000b51f       ?state_case_flag@?$output_processor@DV?$string_output_adapter@D@__crt_stdio_output@@V?$standard_base@DV?$string_output_adapter@D@__crt_stdio_output@@@2@@__crt_stdio_output@@AAE_NXZ 1000c51f f i libucrt:output.obj
 0001:0000b55c       ?state_case_flag@?$output_processor@_WV?$stream_output_adapter@_W@__crt_stdio_output@@V?$standard_base@_WV?$stream_output_adapter@_W@__crt_stdio_output@@@2@@__crt_stdio_output@@AAE_NXZ 1000c55c f i libucrt:output.obj
 0001:0000b55c       ?state_case_flag@?$output_processor@_WV?$string_output_adapter@_W@__crt_stdio_output@@V?$standard_base@_WV?$string_output_adapter@_W@__crt_stdio_output@@@2@@__crt_stdio_output@@AAE_NXZ 1000c55c f i libucrt:output.obj
 0001:0000b599       ?state_case_normal@?$output_processor@DV?$string_output_adapter@D@__crt_stdio_output@@V?$standard_base@DV?$string_output_adapter@D@__crt_stdio_output@@@2@@__crt_stdio_output@@AAE_NXZ 1000c599 f i libucrt:output.obj
 0001:0000b599       ?state_case_normal@?$output_processor@DV?$string_output_adapter@D@__crt_stdio_output@@V?$format_validation_base@DV?$string_output_adapter@D@__crt_stdio_output@@@2@@__crt_stdio_output@@AAE_NXZ 1000c599 f i libucrt:output.obj
 0001:0000b5b8       ?state_case_normal@?$output_processor@_WV?$stream_output_adapter@_W@__crt_stdio_output@@V?$standard_base@_WV?$stream_output_adapter@_W@__crt_stdio_output@@@2@@__crt_stdio_output@@AAE_NXZ 1000c5b8 f i libucrt:output.obj
 0001:0000b5d7       ?state_case_normal@?$output_processor@_WV?$string_output_adapter@_W@__crt_stdio_output@@V?$standard_base@_WV?$string_output_adapter@_W@__crt_stdio_output@@@2@@__crt_stdio_output@@AAE_NXZ 1000c5d7 f i libucrt:output.obj
 0001:0000b5f6       ?state_case_normal_common@?$output_processor@DV?$string_output_adapter@D@__crt_stdio_output@@V?$format_validation_base@DV?$string_output_adapter@D@__crt_stdio_output@@@2@@__crt_stdio_output@@AAE_NXZ 1000c5f6 f i libucrt:output.obj
 0001:0000b5f6       ?state_case_normal_common@?$output_processor@DV?$string_output_adapter@D@__crt_stdio_output@@V?$standard_base@DV?$string_output_adapter@D@__crt_stdio_output@@@2@@__crt_stdio_output@@AAE_NXZ 1000c5f6 f i libucrt:output.obj
 0001:0000b620       ?state_case_normal_common@?$output_processor@_WV?$stream_output_adapter@_W@__crt_stdio_output@@V?$standard_base@_WV?$stream_output_adapter@_W@__crt_stdio_output@@@2@@__crt_stdio_output@@AAE_NXZ 1000c620 f i libucrt:output.obj
 0001:0000b64a       ?state_case_normal_common@?$output_processor@_WV?$string_output_adapter@_W@__crt_stdio_output@@V?$standard_base@_WV?$string_output_adapter@_W@__crt_stdio_output@@@2@@__crt_stdio_output@@AAE_NXZ 1000c64a f i libucrt:output.obj
 0001:0000b665       ?state_case_normal_tchar@?$output_processor@DV?$string_output_adapter@D@__crt_stdio_output@@V?$format_validation_base@DV?$string_output_adapter@D@__crt_stdio_output@@@2@@__crt_stdio_output@@AAE_ND@Z 1000c665 f i libucrt:output.obj
 0001:0000b665       ?state_case_normal_tchar@?$output_processor@DV?$string_output_adapter@D@__crt_stdio_output@@V?$standard_base@DV?$string_output_adapter@D@__crt_stdio_output@@@2@@__crt_stdio_output@@AAE_ND@Z 1000c665 f i libucrt:output.obj
 0001:0000b6c9       ?state_case_precision@?$output_processor@DV?$string_output_adapter@D@__crt_stdio_output@@V?$format_validation_base@DV?$string_output_adapter@D@__crt_stdio_output@@@2@@__crt_stdio_output@@AAE_NXZ 1000c6c9 f i libucrt:output.obj
 0001:0000b6c9       ?state_case_precision@?$output_processor@DV?$string_output_adapter@D@__crt_stdio_output@@V?$standard_base@DV?$string_output_adapter@D@__crt_stdio_output@@@2@@__crt_stdio_output@@AAE_NXZ 1000c6c9 f i libucrt:output.obj
 0001:0000b6ef       ?state_case_precision@?$output_processor@_WV?$string_output_adapter@_W@__crt_stdio_output@@V?$standard_base@_WV?$string_output_adapter@_W@__crt_stdio_output@@@2@@__crt_stdio_output@@AAE_NXZ 1000c6ef f i libucrt:output.obj
 0001:0000b6ef       ?state_case_precision@?$output_processor@_WV?$stream_output_adapter@_W@__crt_stdio_output@@V?$standard_base@_WV?$stream_output_adapter@_W@__crt_stdio_output@@@2@@__crt_stdio_output@@AAE_NXZ 1000c6ef f i libucrt:output.obj
 0001:0000b716       ?state_case_size@?$output_processor@DV?$string_output_adapter@D@__crt_stdio_output@@V?$standard_base@DV?$string_output_adapter@D@__crt_stdio_output@@@2@@__crt_stdio_output@@AAE_NXZ 1000c716 f i libucrt:output.obj
 0001:0000b716       ?state_case_size@?$output_processor@DV?$string_output_adapter@D@__crt_stdio_output@@V?$format_validation_base@DV?$string_output_adapter@D@__crt_stdio_output@@@2@@__crt_stdio_output@@AAE_NXZ 1000c716 f i libucrt:output.obj
 0001:0000b864       ?state_case_size@?$output_processor@_WV?$stream_output_adapter@_W@__crt_stdio_output@@V?$standard_base@_WV?$stream_output_adapter@_W@__crt_stdio_output@@@2@@__crt_stdio_output@@AAE_NXZ 1000c864 f i libucrt:output.obj
 0001:0000b9dc       ?state_case_size@?$output_processor@_WV?$string_output_adapter@_W@__crt_stdio_output@@V?$standard_base@_WV?$string_output_adapter@_W@__crt_stdio_output@@@2@@__crt_stdio_output@@AAE_NXZ 1000c9dc f i libucrt:output.obj
 0001:0000bb54       ?state_case_type@?$output_processor@DV?$string_output_adapter@D@__crt_stdio_output@@V?$format_validation_base@DV?$string_output_adapter@D@__crt_stdio_output@@@2@@__crt_stdio_output@@AAE_NXZ 1000cb54 f i libucrt:output.obj
 0001:0000bb54       ?state_case_type@?$output_processor@DV?$string_output_adapter@D@__crt_stdio_output@@V?$standard_base@DV?$string_output_adapter@D@__crt_stdio_output@@@2@@__crt_stdio_output@@AAE_NXZ 1000cb54 f i libucrt:output.obj
 0001:0000bd86       ?state_case_type@?$output_processor@_WV?$stream_output_adapter@_W@__crt_stdio_output@@V?$standard_base@_WV?$stream_output_adapter@_W@__crt_stdio_output@@@2@@__crt_stdio_output@@AAE_NXZ 1000cd86 f i libucrt:output.obj
 0001:0000bfe3       ?state_case_type@?$output_processor@_WV?$string_output_adapter@_W@__crt_stdio_output@@V?$standard_base@_WV?$string_output_adapter@_W@__crt_stdio_output@@@2@@__crt_stdio_output@@AAE_NXZ 1000cfe3 f i libucrt:output.obj
 0001:0000c240       ?state_case_width@?$output_processor@DV?$string_output_adapter@D@__crt_stdio_output@@V?$format_validation_base@DV?$string_output_adapter@D@__crt_stdio_output@@@2@@__crt_stdio_output@@AAE_NXZ 1000d240 f i libucrt:output.obj
 0001:0000c240       ?state_case_width@?$output_processor@DV?$string_output_adapter@D@__crt_stdio_output@@V?$standard_base@DV?$string_output_adapter@D@__crt_stdio_output@@@2@@__crt_stdio_output@@AAE_NXZ 1000d240 f i libucrt:output.obj
 0001:0000c26b       ?state_case_width@?$output_processor@_WV?$string_output_adapter@_W@__crt_stdio_output@@V?$standard_base@_WV?$string_output_adapter@_W@__crt_stdio_output@@@2@@__crt_stdio_output@@AAE_NXZ 1000d26b f i libucrt:output.obj
 0001:0000c26b       ?state_case_width@?$output_processor@_WV?$stream_output_adapter@_W@__crt_stdio_output@@V?$standard_base@_WV?$stream_output_adapter@_W@__crt_stdio_output@@@2@@__crt_stdio_output@@AAE_NXZ 1000d26b f i libucrt:output.obj
 0001:0000c2a0       ?to_integer_size@__crt_stdio_output@@YAIW4length_modifier@1@@Z 1000d2a0 f i libucrt:output.obj
 0001:0000c2fc       ?type_case_Z@?$output_processor@DV?$string_output_adapter@D@__crt_stdio_output@@V?$format_validation_base@DV?$string_output_adapter@D@__crt_stdio_output@@@2@@__crt_stdio_output@@AAE_NXZ 1000d2fc f i libucrt:output.obj
 0001:0000c2fc       ?type_case_Z@?$output_processor@DV?$string_output_adapter@D@__crt_stdio_output@@V?$standard_base@DV?$string_output_adapter@D@__crt_stdio_output@@@2@@__crt_stdio_output@@AAE_NXZ 1000d2fc f i libucrt:output.obj
 0001:0000c356       ?type_case_Z@?$output_processor@_WV?$stream_output_adapter@_W@__crt_stdio_output@@V?$standard_base@_WV?$stream_output_adapter@_W@__crt_stdio_output@@@2@@__crt_stdio_output@@AAE_NXZ 1000d356 f i libucrt:output.obj
 0001:0000c356       ?type_case_Z@?$output_processor@_WV?$string_output_adapter@_W@__crt_stdio_output@@V?$standard_base@_WV?$string_output_adapter@_W@__crt_stdio_output@@@2@@__crt_stdio_output@@AAE_NXZ 1000d356 f i libucrt:output.obj
 0001:0000c3b0       ?type_case_a@?$output_processor@DV?$string_output_adapter@D@__crt_stdio_output@@V?$format_validation_base@DV?$string_output_adapter@D@__crt_stdio_output@@@2@@__crt_stdio_output@@AAE_NXZ 1000d3b0 f i libucrt:output.obj
 0001:0000c3b0       ?type_case_a@?$output_processor@DV?$string_output_adapter@D@__crt_stdio_output@@V?$standard_base@DV?$string_output_adapter@D@__crt_stdio_output@@@2@@__crt_stdio_output@@AAE_NXZ 1000d3b0 f i libucrt:output.obj
 0001:0000c501       ?type_case_a@?$output_processor@_WV?$string_output_adapter@_W@__crt_stdio_output@@V?$standard_base@_WV?$string_output_adapter@_W@__crt_stdio_output@@@2@@__crt_stdio_output@@AAE_NXZ 1000d501 f i libucrt:output.obj
 0001:0000c501       ?type_case_a@?$output_processor@_WV?$stream_output_adapter@_W@__crt_stdio_output@@V?$standard_base@_WV?$stream_output_adapter@_W@__crt_stdio_output@@@2@@__crt_stdio_output@@AAE_NXZ 1000d501 f i libucrt:output.obj
 0001:0000c668       ?type_case_c_tchar@?$output_processor@DV?$string_output_adapter@D@__crt_stdio_output@@V?$standard_base@DV?$string_output_adapter@D@__crt_stdio_output@@@2@@__crt_stdio_output@@AAE_ND@Z 1000d668 f i libucrt:output.obj
 0001:0000c668       ?type_case_c_tchar@?$output_processor@DV?$string_output_adapter@D@__crt_stdio_output@@V?$format_validation_base@DV?$string_output_adapter@D@__crt_stdio_output@@@2@@__crt_stdio_output@@AAE_ND@Z 1000d668 f i libucrt:output.obj
 0001:0000c6fb       ?type_case_c_tchar@?$output_processor@_WV?$stream_output_adapter@_W@__crt_stdio_output@@V?$standard_base@_WV?$stream_output_adapter@_W@__crt_stdio_output@@@2@@__crt_stdio_output@@AAE_N_W@Z 1000d6fb f i libucrt:output.obj
 0001:0000c6fb       ?type_case_c_tchar@?$output_processor@_WV?$string_output_adapter@_W@__crt_stdio_output@@V?$standard_base@_WV?$string_output_adapter@_W@__crt_stdio_output@@@2@@__crt_stdio_output@@AAE_N_W@Z 1000d6fb f i libucrt:output.obj
 0001:0000c791       ?type_case_integer@?$output_processor@DV?$string_output_adapter@D@__crt_stdio_output@@V?$format_validation_base@DV?$string_output_adapter@D@__crt_stdio_output@@@2@@__crt_stdio_output@@AAE_NI_N@Z 1000d791 f i libucrt:output.obj
 0001:0000c791       ?type_case_integer@?$output_processor@DV?$string_output_adapter@D@__crt_stdio_output@@V?$standard_base@DV?$string_output_adapter@D@__crt_stdio_output@@@2@@__crt_stdio_output@@AAE_NI_N@Z 1000d791 f i libucrt:output.obj
 0001:0000c8e2       ?type_case_integer@?$output_processor@_WV?$string_output_adapter@_W@__crt_stdio_output@@V?$standard_base@_WV?$string_output_adapter@_W@__crt_stdio_output@@@2@@__crt_stdio_output@@AAE_NI_N@Z 1000d8e2 f i libucrt:output.obj
 0001:0000c8e2       ?type_case_integer@?$output_processor@_WV?$stream_output_adapter@_W@__crt_stdio_output@@V?$standard_base@_WV?$stream_output_adapter@_W@__crt_stdio_output@@@2@@__crt_stdio_output@@AAE_NI_N@Z 1000d8e2 f i libucrt:output.obj
 0001:0000ca37       ?type_case_n@?$output_processor@DV?$string_output_adapter@D@__crt_stdio_output@@V?$standard_base@DV?$string_output_adapter@D@__crt_stdio_output@@@2@@__crt_stdio_output@@AAE_NXZ 1000da37 f i libucrt:output.obj
 0001:0000ca37       ?type_case_n@?$output_processor@_WV?$string_output_adapter@_W@__crt_stdio_output@@V?$standard_base@_WV?$string_output_adapter@_W@__crt_stdio_output@@@2@@__crt_stdio_output@@AAE_NXZ 1000da37 f i libucrt:output.obj
 0001:0000ca37       ?type_case_n@?$output_processor@DV?$string_output_adapter@D@__crt_stdio_output@@V?$format_validation_base@DV?$string_output_adapter@D@__crt_stdio_output@@@2@@__crt_stdio_output@@AAE_NXZ 1000da37 f i libucrt:output.obj
 0001:0000ca37       ?type_case_n@?$output_processor@_WV?$stream_output_adapter@_W@__crt_stdio_output@@V?$standard_base@_WV?$stream_output_adapter@_W@__crt_stdio_output@@@2@@__crt_stdio_output@@AAE_NXZ 1000da37 f i libucrt:output.obj
 0001:0000caab       ?type_case_o@?$output_processor@DV?$string_output_adapter@D@__crt_stdio_output@@V?$format_validation_base@DV?$string_output_adapter@D@__crt_stdio_output@@@2@@__crt_stdio_output@@AAE_NXZ 1000daab f i libucrt:output.obj
 0001:0000caab       ?type_case_o@?$output_processor@DV?$string_output_adapter@D@__crt_stdio_output@@V?$standard_base@DV?$string_output_adapter@D@__crt_stdio_output@@@2@@__crt_stdio_output@@AAE_NXZ 1000daab f i libucrt:output.obj
 0001:0000caca       ?type_case_o@?$output_processor@_WV?$stream_output_adapter@_W@__crt_stdio_output@@V?$standard_base@_WV?$stream_output_adapter@_W@__crt_stdio_output@@@2@@__crt_stdio_output@@AAE_NXZ 1000daca f i libucrt:output.obj
 0001:0000caca       ?type_case_o@?$output_processor@_WV?$string_output_adapter@_W@__crt_stdio_output@@V?$standard_base@_WV?$string_output_adapter@_W@__crt_stdio_output@@@2@@__crt_stdio_output@@AAE_NXZ 1000daca f i libucrt:output.obj
 0001:0000cae9       ?type_case_p@?$output_processor@DV?$string_output_adapter@D@__crt_stdio_output@@V?$format_validation_base@DV?$string_output_adapter@D@__crt_stdio_output@@@2@@__crt_stdio_output@@AAE_NXZ 1000dae9 f i libucrt:output.obj
 0001:0000cae9       ?type_case_p@?$output_processor@DV?$string_output_adapter@D@__crt_stdio_output@@V?$standard_base@DV?$string_output_adapter@D@__crt_stdio_output@@@2@@__crt_stdio_output@@AAE_NXZ 1000dae9 f i libucrt:output.obj
 0001:0000cb01       ?type_case_p@?$output_processor@_WV?$string_output_adapter@_W@__crt_stdio_output@@V?$standard_base@_WV?$string_output_adapter@_W@__crt_stdio_output@@@2@@__crt_stdio_output@@AAE_NXZ 1000db01 f i libucrt:output.obj
 0001:0000cb01       ?type_case_p@?$output_processor@_WV?$stream_output_adapter@_W@__crt_stdio_output@@V?$standard_base@_WV?$stream_output_adapter@_W@__crt_stdio_output@@@2@@__crt_stdio_output@@AAE_NXZ 1000db01 f i libucrt:output.obj
 0001:0000cb19       ?type_case_s@?$output_processor@DV?$string_output_adapter@D@__crt_stdio_output@@V?$standard_base@DV?$string_output_adapter@D@__crt_stdio_output@@@2@@__crt_stdio_output@@AAE_NXZ 1000db19 f i libucrt:output.obj
 0001:0000cb19       ?type_case_s@?$output_processor@DV?$string_output_adapter@D@__crt_stdio_output@@V?$format_validation_base@DV?$string_output_adapter@D@__crt_stdio_output@@@2@@__crt_stdio_output@@AAE_NXZ 1000db19 f i libucrt:output.obj
 0001:0000cb8a       ?type_case_s@?$output_processor@_WV?$stream_output_adapter@_W@__crt_stdio_output@@V?$standard_base@_WV?$stream_output_adapter@_W@__crt_stdio_output@@@2@@__crt_stdio_output@@AAE_NXZ 1000db8a f i libucrt:output.obj
 0001:0000cb8a       ?type_case_s@?$output_processor@_WV?$string_output_adapter@_W@__crt_stdio_output@@V?$standard_base@_WV?$string_output_adapter@_W@__crt_stdio_output@@@2@@__crt_stdio_output@@AAE_NXZ 1000db8a f i libucrt:output.obj
 0001:0000cbfd       ?type_case_s_compute_narrow_string_length@?$output_processor@_WV?$string_output_adapter@_W@__crt_stdio_output@@V?$standard_base@_WV?$string_output_adapter@_W@__crt_stdio_output@@@2@@__crt_stdio_output@@ABEHH_W@Z 1000dbfd f i libucrt:output.obj
 0001:0000cbfd       ?type_case_s_compute_narrow_string_length@?$output_processor@_WV?$stream_output_adapter@_W@__crt_stdio_output@@V?$standard_base@_WV?$stream_output_adapter@_W@__crt_stdio_output@@@2@@__crt_stdio_output@@ABEHH_W@Z 1000dbfd f i libucrt:output.obj
 0001:0000cc44       ?validate@?$c_string_character_source@D@__crt_strtox@@QBE_NXZ 1000dc44 f i libucrt:atox.obj
 0001:0000cc44       ?validate@?$stream_output_adapter@_W@__crt_stdio_output@@QBE_NXZ 1000dc44 f i libucrt:output.obj
 0001:0000cc44       ?validate@?$string_output_adapter@D@__crt_stdio_output@@QBE_NXZ 1000dc44 f i libucrt:output.obj
 0001:0000cc44       ?validate@?$c_string_character_source@_W@__crt_strtox@@QBE_NXZ 1000dc44 f i libucrt:atox.obj
 0001:0000cc44       ?validate@?$string_output_adapter@_W@__crt_stdio_output@@QBE_NXZ 1000dc44 f i libucrt:output.obj
 0001:0000cc5f       ?validate_and_update_state_at_end_of_format_string@?$format_validation_base@DV?$string_output_adapter@D@__crt_stdio_output@@@__crt_stdio_output@@IBE_NXZ 1000dc5f f i libucrt:output.obj
 0001:0000cc81       ?write_character@?$string_output_adapter@D@__crt_stdio_output@@QBE_NDQAH@Z 1000dc81 f i libucrt:output.obj
 0001:0000ccc3       ?write_character@?$string_output_adapter@_W@__crt_stdio_output@@QBE_N_WQAH@Z 1000dcc3 f i libucrt:output.obj
 0001:0000cd08       ?write_character_without_count_update@?$stream_output_adapter@_W@__crt_stdio_output@@QBE_N_W@Z 1000dd08 f i libucrt:output.obj
 0001:0000cd41       ?write_stored_string_tchar@?$output_processor@DV?$string_output_adapter@D@__crt_stdio_output@@V?$standard_base@DV?$string_output_adapter@D@__crt_stdio_output@@@2@@__crt_stdio_output@@AAE_ND@Z 1000dd41 f i libucrt:output.obj
 0001:0000cd41       ?write_stored_string_tchar@?$output_processor@DV?$string_output_adapter@D@__crt_stdio_output@@V?$format_validation_base@DV?$string_output_adapter@D@__crt_stdio_output@@@2@@__crt_stdio_output@@AAE_ND@Z 1000dd41 f i libucrt:output.obj
 0001:0000cde6       ?write_stored_string_tchar@?$output_processor@_WV?$stream_output_adapter@_W@__crt_stdio_output@@V?$standard_base@_WV?$stream_output_adapter@_W@__crt_stdio_output@@@2@@__crt_stdio_output@@AAE_N_W@Z 1000dde6 f i libucrt:output.obj
 0001:0000ce73       ?write_stored_string_tchar@?$output_processor@_WV?$string_output_adapter@_W@__crt_stdio_output@@V?$standard_base@_WV?$string_output_adapter@_W@__crt_stdio_output@@@2@@__crt_stdio_output@@AAE_N_W@Z 1000de73 f i libucrt:output.obj
 0001:0000cf00       ?write_string@?$stream_output_adapter@_W@__crt_stdio_output@@QBEXQB_WHQAHAAV__crt_deferred_errno_cache@@@Z 1000df00 f i libucrt:output.obj
 0001:0000cf2c       ?write_string@?$string_output_adapter@D@__crt_stdio_output@@QBEXQBDHQAHAAV__crt_deferred_errno_cache@@@Z 1000df2c f i libucrt:output.obj
 0001:0000cf93       ?write_string@?$string_output_adapter@_W@__crt_stdio_output@@QBEXQB_WHQAHAAV__crt_deferred_errno_cache@@@Z 1000df93 f i libucrt:output.obj
 0001:0000d004       ?write_string_impl@?$output_adapter_common@_WV?$stream_output_adapter@_W@__crt_stdio_output@@@__crt_stdio_output@@IBEXQB_WHQAHAAV__crt_deferred_errno_cache@@@Z 1000e004 f i libucrt:output.obj
 0001:0000d0a5       ___acrt_locale_get_ctype_array_value 1000e0a5 f i libucrt:output.obj
 0001:0000d0c7       ___stdio_common_vfwprintf  1000e0c7 f   libucrt:output.obj
 0001:0000d14a       ___stdio_common_vsnprintf_s 1000e14a f   libucrt:output.obj
 0001:0000d171       ___stdio_common_vsprintf   1000e171 f   libucrt:output.obj
 0001:0000d195       ___stdio_common_vswprintf  1000e195 f   libucrt:output.obj
 0001:0000d1b9       _free                      1000e1b9 f   libucrt:free.obj
 0001:0000d7d3       ??$ftprintf@PAU_iobuf@@PB_WABQB_WABQB_WABI@?$__crt_char_traits@_W@@SAH$$QAPAU_iobuf@@$$QAPB_WABQB_W2ABI@Z 1000e7d3 f i libucrt:assert.obj
 0001:0000d8b0       __vfwprintf_l              1000e8b0 f i libucrt:assert.obj
 0001:0000d8d5       __vswprintf_c_l            1000e8d5 f i libucrt:assert.obj
 0001:0000d904       __wassert                  1000e904 f   libucrt:assert.obj
 0001:0000d94c       _fwprintf                  1000e94c f i libucrt:assert.obj
 0001:0000d9e8       _swprintf                  1000e9e8 f i libucrt:assert.obj
 0001:0000da06       _malloc                    1000ea06 f   libucrt:malloc.obj
 0001:0000dac4       _strncpy_s                 1000eac4 f   libucrt:strncpy_s.obj
 0001:0000dad0       _strncpy                   1000ead0 f   libucrt:strncpy.obj
 0001:0000dbf4       ___ascii_stricmp           1000ebf4 f   libucrt:stricmp.obj
 0001:0000dc2d       __stricmp                  1000ec2d f   libucrt:stricmp.obj
 0001:0000dc76       __stricmp_l                1000ec76 f   libucrt:stricmp.obj
 0001:0000dd04       ___acrt_initialize_new_handler 1000ed04 f   libucrt:new_handler.obj
 0001:0000dd13       __callnewh                 1000ed13 f   libucrt:new_handler.obj
 0001:0000dd40       __query_new_handler        1000ed40 f   libucrt:new_handler.obj
 0001:0000dd9c       __seh_filter_dll           1000ed9c f   libucrt:exception_filter.obj
 0001:0000ddbc       __seh_filter_exe           1000edbc f   libucrt:exception_filter.obj
 0001:0000e18a       ___acrt_initialize_thread_local_exit_callback 1000f18a f   libucrt:exit.obj
 0001:0000e199       __cexit                    1000f199 f   libucrt:exit.obj
 0001:0000e1a8       __exit                     1000f1a8 f   libucrt:exit.obj
 0001:0000e1be       __is_c_termination_complete 1000f1be f   libucrt:exit.obj
 0001:0000e46f       ___acrt_allocate_buffer_for_argv 1000f46f f   libucrt:argv_parsing.obj
 0001:0000e4be       __configure_narrow_argv    1000f4be f   libucrt:argv_parsing.obj
 0001:0000e61b       ??$uninitialize@A6AXAAPAPAD@Z@?$dual_state_global@PAPAD@__crt_state_management@@QAEXA6AXAAPAPAD@Z@Z 1000f61b f i libucrt:environment_initialization.obj
 0001:0000e61b       ??$uninitialize@A6AXAAPAPA_W@Z@?$dual_state_global@PAPA_W@__crt_state_management@@QAEXA6AXAAPAPA_W@Z@Z 1000f61b f i libucrt:environment_initialization.obj
 0001:0000e67a       ___dcrt_uninitialize_environments_nolock 1000f67a f   libucrt:environment_initialization.obj
 0001:0000e6b1       __initialize_narrow_environment 1000f6b1 f   libucrt:environment_initialization.obj
 0001:0000e76c       ??$__crt_fast_encode_pointer@P6AHXZ@@YAP6AHXZQ6AHXZ@Z 1000f76c f i libucrt:onexit.obj
 0001:0000e76c       ??$__crt_fast_encode_pointer@PAP6AXXZ@@YAPAP6AXXZQAP6AXXZ@Z 1000f76c f i libucrt:onexit.obj
 0001:0000e76c       ??$__crt_fast_encode_pointer@PAX@@YAPAXQAX@Z 1000f76c f i libucrt:initialization.obj
 0001:0000e98e       __crt_atexit               1000f98e f   libucrt:onexit.obj
 0001:0000e9a4       __execute_onexit_table     1000f9a4 f   libucrt:onexit.obj
 0001:0000e9d1       __initialize_onexit_table  1000f9d1 f   libucrt:onexit.obj
 0001:0000e9fa       __register_onexit_function 1000f9fa f   libucrt:onexit.obj
 0001:0000ea54       ___acrt_uninitialize_command_line 1000fa54 f   libucrt:argv_data.obj
 0001:0000eb2b       ___acrt_initialize         1000fb2b f   libucrt:initialization.obj
 0001:0000eb3d       ___acrt_thread_attach      1000fb3d f   libucrt:initialization.obj
 0001:0000eb48       ___acrt_thread_detach      1000fb48 f   libucrt:initialization.obj
 0001:0000eb50       ___acrt_uninitialize       1000fb50 f   libucrt:initialization.obj
 0001:0000eb80       ___acrt_uninitialize_critical 1000fb80 f   libucrt:initialization.obj
 0001:0000eb92       __initterm                 1000fb92 f   libucrt:initterm.obj
 0001:0000ebd7       __initterm_e               1000fbd7 f   libucrt:initterm.obj
 0001:0000ec05       _terminate                 1000fc05 f   libucrt:terminate.obj
 0001:0000ec41       _strnicmp                  1000fc41 f   libucrt:strnicmp.obj
 0001:0000ec41       __strnicmp                 1000fc41 f   libucrt:strnicmp.obj
 0001:0000ecae       __strnicmp_l               1000fcae f   libucrt:strnicmp.obj
 0001:0000ed77       _strdup                    1000fd77 f   libucrt:strdup.obj
 0001:0000ed77       __strdup                   1000fd77 f   libucrt:strdup.obj
 0001:0000ef37       __freea_crt                1000ff37 f i libucrt:strlwr.obj
 0001:0000ef57       __strlwr                   1000ff57 f   libucrt:strlwr.obj
 0001:0000ef57       _strlwr                    1000ff57 f   libucrt:strlwr.obj
 0001:0000efb3       __strlwr_s_l               1000ffb3 f   libucrt:strlwr.obj
 0001:0000efed       _abort                     1000ffed f   libucrt:abort.obj
 0001:0000f031       _strcpy_s                  10010031 f   libucrt:strcpy_s.obj
 0001:0000f08b       _calloc                    1001008b f   libucrt:calloc.obj
 0001:0000f096       ??$is_overflow_condition@K@__crt_strtox@@YA_NIK@Z 10010096 f i libucrt:atox.obj
 0001:0000f0c7       ??$parse_integer@KV?$c_string_character_source@D@__crt_strtox@@@__crt_strtox@@YAKQAU__crt_locale_pointers@@V?$c_string_character_source@D@0@H_N@Z 100100c7 f i libucrt:atox.obj
 0001:0000f2ea       ??$parse_integer@KV?$c_string_character_source@_W@__crt_strtox@@@__crt_strtox@@YAKQAU__crt_locale_pointers@@V?$c_string_character_source@_W@0@H_N@Z 100102ea f i libucrt:atox.obj
 0001:0000f8f2       ?unget@?$c_string_character_source@D@__crt_strtox@@QAEXD@Z 100108f2 f i libucrt:atox.obj
 0001:0000f91b       ?unget@?$c_string_character_source@_W@__crt_strtox@@QAEX_W@Z 1001091b f i libucrt:atox.obj
 0001:0000f949       __ischartype_l             10010949 f i libucrt:atox.obj
 0001:0000f9a0       _strncmp                   100109a0 f   libucrt:strncmp.obj
 0001:0000fa18       _wcsncmp                   10010a18 f   libucrt:wcsncmp.obj
 0001:0000fd90       ___acrt_freeptd            10010d90 f   libucrt:per_thread_data.obj
 0001:0000fdbc       ___acrt_getptd             10010dbc f   libucrt:per_thread_data.obj
 0001:0000fe79       ___acrt_getptd_head        10010e79 f   libucrt:per_thread_data.obj
 0001:0000ff13       ___acrt_getptd_noexit      10010f13 f   libucrt:per_thread_data.obj
 0001:0000ffc8       ___acrt_initialize_ptd     10010fc8 f   libucrt:per_thread_data.obj
 0001:0000fff4       ___acrt_uninitialize_ptd   10010ff4 f   libucrt:per_thread_data.obj
 0001:0001000e       ___acrt_errno_from_os_error 1001100e f   libucrt:errno.obj
 0001:00010051       ___acrt_errno_map_os_error 10011051 f   libucrt:errno.obj
 0001:00010074       ___doserrno                10011074 f   libucrt:errno.obj
 0001:00010087       __errno                    10011087 f   libucrt:errno.obj
 0001:0001009a       __free_base                1001109a f   libucrt:free_base.obj
 0001:000100d4       __malloc_base              100110d4 f   libucrt:malloc_base.obj
 0001:00010122       ??$make_c_string_character_source@_WPAPA_W@__crt_strtox@@YA?AV?$c_string_character_source@_W@0@QB_WQAPA_W@Z 10011122 f i libucrt:strtox.obj
 0001:00010122       ??$make_c_string_character_source@DPAPAD@__crt_strtox@@YA?AV?$c_string_character_source@D@0@QBDQAPAD@Z 10011122 f i libucrt:strtox.obj
 0001:0001013d       _strtol                    1001113d f   libucrt:strtox.obj
 0001:00010167       _wcstol                    10011167 f   libucrt:strtox.obj
 0001:00010191       __mbtowc_l                 10011191 f   libucrt:mbtowc.obj
 0001:000102d3       _mbtowc                    100112d3 f   libucrt:mbtowc.obj
 0001:000102ed       __wctomb_s_l               100112ed f   libucrt:wctomb.obj
 0001:00010448       _wctomb_s                  10011448 f   libucrt:wctomb.obj
 0001:00010465       _strnlen                   10011465 f   libucrt:strnlen.obj
 0001:00010587       _wcsnlen                   10011587 f   libucrt:strnlen.obj
 0001:00010737       ___acrt_update_locale_info 10011737 f   libucrt:locale_update.obj
 0001:00010764       ___acrt_update_multibyte_info 10011764 f   libucrt:locale_update.obj
 0001:00010791       ?__acrt_fp_classify@@YA?AW4__acrt_fp_class@@ABN@Z 10011791 f i libucrt:cvt.obj
 0001:00011144       ___acrt_fp_format          10012144 f   libucrt:cvt.obj
 0001:000112d0       __fputwc_nolock            100122d0 f   libucrt:fputwc.obj
 0001:000113f9       __fileno                   100123f9 f   libucrt:fileno.obj
 0001:00011420       ___acrt_initialize_stdio   10012420 f   libucrt:_file.obj
 0001:000114e8       ___acrt_iob_func           100124e8 f   libucrt:_file.obj
 0001:000114f8       ___acrt_uninitialize_stdio 100124f8 f   libucrt:_file.obj
 0001:00011544       __lock_file                10012544 f   libucrt:_file.obj
 0001:00011558       __unlock_file              10012558 f   libucrt:_file.obj
 0001:0001156c       __fputc_nolock             1001256c f   libucrt:fputc.obj
 0001:00011595       __get_printf_count_output  10012595 f   libucrt:printf_count_output.obj
 0001:000115aa       ___acrt_should_use_temporary_buffer 100125aa f   libucrt:_sftbuf.obj
 0001:000115e5       ___acrt_stdio_begin_temporary_buffering_nolock 100125e5 f   libucrt:_sftbuf.obj
 0001:00011691       ___acrt_stdio_end_temporary_buffering_nolock 10012691 f   libucrt:_sftbuf.obj
 0001:00011739       ___acrt_set_locale_changed 10012739 f   libucrt:wsetlocale.obj
 0001:00011744       ___acrt_uninitialize_locale 10012744 f   libucrt:wsetlocale.obj
 0001:000118d5       ___acrt_initialize_lowio   100128d5 f   libucrt:ioinit.obj
 0001:00011935       ___acrt_uninitialize_lowio 10012935 f   libucrt:ioinit.obj
 0001:00011961       __query_app_type           10012961 f   libucrt:report_runtime_error.obj
 0001:00011a8c       __itow_s                   10012a8c f   libucrt:xtoa.obj
 0001:00011abf       __set_error_mode           10012abf f   libucrt:set_error_mode.obj
 0001:00011afe       _wcscat_s                  10012afe f   libucrt:wcscat_s.obj
 0001:00011b73       _wcscpy_s                  10012b73 f   libucrt:wcscpy_s.obj
 0001:00011cbe       _wcsncat_s                 10012cbe f   libucrt:wcsncat_s.obj
 0001:00011d90       ?__acrt_get_utf8_acp_compatibility_codepage@@YAIXZ 10012d90 f i libucrt:getmodulefilenamea.obj
 0001:00011dcf       ?allocate@?$__crt_win32_buffer@DU__crt_win32_buffer_no_resizing@@@@QAEHI@Z 10012dcf f i libucrt:getmodulefilenamea.obj
 0001:00011df6       ?set_to_nullptr@?$__crt_win32_buffer@DU__crt_win32_buffer_no_resizing@@@@QAEXXZ 10012df6 f i libucrt:getmodulefilenamea.obj
 0001:00011e0a       ___acrt_GetModuleFileNameA 10012e0a f   libucrt:getmodulefilenamea.obj
 0001:00011f29       ___acrt_show_wide_message_box 10012f29 f   libucrt:crtmbox.obj
 0001:00012171       ___acrt_stdio_flush_nolock 10013171 f   libucrt:fflush.obj
 0001:000121d6       __fflush_nolock            100131d6 f   libucrt:fflush.obj
 0001:0001221e       __flushall                 1001321e f   libucrt:fflush.obj
 0001:00012227       _fflush                    10013227 f   libucrt:fflush.obj
 0001:000123a7       _setvbuf                   100133a7 f   libucrt:setvbuf.obj
 0001:000124f7       ___acrt_get_sigabrt_handler 100134f7 f   libucrt:signal.obj
 0001:0001251e       ___acrt_initialize_signal_handlers 1001351e f   libucrt:signal.obj
 0001:0001253c       _raise                     1001353c f   libucrt:signal.obj
 0001:0001272f       ___acrt_initialize_locks   1001372f f   libucrt:locks.obj
 0001:00012770       ___acrt_lock               10013770 f   libucrt:locks.obj
 0001:00012787       ___acrt_uninitialize_locks 10013787 f   libucrt:locks.obj
 0001:000127b8       ___acrt_unlock             100137b8 f   libucrt:locks.obj
 0001:000127cf       ___acrt_get_developer_information_policy 100137cf f   libucrt:win_policies.obj
 0001:00012813       ___acrt_get_process_end_policy 10013813 f   libucrt:win_policies.obj
 0001:00012844       ___acrt_get_windowing_model_policy 10013844 f   libucrt:win_policies.obj
 0001:000128a0       __calloc_base              100138a0 f   libucrt:calloc_base.obj
 0001:00012a96       ??$__acrt_mbs_to_wcs_cp@U__crt_win32_buffer_internal_dynamic_resizing@@@@YAHQBDAAV?$__crt_win32_buffer@_WU__crt_win32_buffer_internal_dynamic_resizing@@@@I@Z 10013a96 f i libucrt:argv_wildcards.obj
 0001:00012faa       ?_deallocate@?$__crt_win32_buffer@DU__crt_win32_buffer_internal_dynamic_resizing@@@@AAEXXZ 10013faa f i libucrt:argv_wildcards.obj
 0001:00012faa       ?_deallocate@?$__crt_win32_buffer@_WU__crt_win32_buffer_internal_dynamic_resizing@@@@AAEXXZ 10013faa f i libucrt:argv_wildcards.obj
 0001:00012fc4       ?allocate@?$__crt_win32_buffer@DU__crt_win32_buffer_internal_dynamic_resizing@@@@QAEHI@Z 10013fc4 f i libucrt:argv_wildcards.obj
 0001:00013000       ?allocate@?$__crt_win32_buffer@_WU__crt_win32_buffer_internal_dynamic_resizing@@@@QAEHI@Z 10014000 f i libucrt:argv_wildcards.obj
 0001:0001303f       ?allocate@__crt_win32_buffer_internal_dynamic_resizing@@SAHQAPAXIABV__crt_win32_buffer_empty_debug_info@@@Z 1001403f f i libucrt:argv_wildcards.obj
 0001:000130e5       ___acrt_expand_narrow_argv_wildcards 100140e5 f   libucrt:argv_wildcards.obj
 0001:00013608       ___acrt_initialize_multibyte 10014608 f   libucrt:mbctype.obj
 0001:00013650       ___acrt_update_thread_multibyte_data 10014650 f   libucrt:mbctype.obj
 0001:00013663       __setmbcp_nolock           10014663 f   libucrt:mbctype.obj
 0001:000138ad       __ismbblead                100148ad f   libucrt:ismbbyte.obj
 0001:000138c5       ___acrt_initialize_command_line 100148c5 f   libucrt:argv_data.obj
 0001:000138de       ___acrt_MultiByteToWideChar 100148de f   libucrt:multibytetowidechar.obj
 0001:0001395a       ___acrt_WideCharToMultiByte 1001495a f   libucrt:widechartomultibyte.obj
 0001:00013a48       ___dcrt_get_narrow_environment_from_os 10014a48 f   libucrt:get_environment_from_os.obj
 0001:00013acc       __recalloc_base            10014acc f   libucrt:recalloc.obj
 0001:00013d05       ___acrt_AppPolicyGetProcessTerminationMethodInternal@4 10014d05 f   libucrt:winapi_thunks.obj
 0001:00013d45       ___acrt_AppPolicyGetShowDeveloperDiagnosticInternal@4 10014d45 f   libucrt:winapi_thunks.obj
 0001:00013d85       ___acrt_AppPolicyGetWindowingModelInternal@4 10014d85 f   libucrt:winapi_thunks.obj
 0001:00013dc5       ___acrt_AreFileApisANSI@0  10014dc5 f   libucrt:winapi_thunks.obj
 0001:00013de4       ___acrt_FlsAlloc@4         10014de4 f   libucrt:winapi_thunks.obj
 0001:00013e23       ___acrt_FlsFree@4          10014e23 f   libucrt:winapi_thunks.obj
 0001:00013e62       ___acrt_FlsGetValue@4      10014e62 f   libucrt:winapi_thunks.obj
 0001:00013ea1       ___acrt_FlsSetValue@8      10014ea1 f   libucrt:winapi_thunks.obj
 0001:00013ee3       ___acrt_InitializeCriticalSectionEx@12 10014ee3 f   libucrt:winapi_thunks.obj
 0001:00013f2e       ___acrt_LCMapStringEx@36   10014f2e f   libucrt:winapi_thunks.obj
 0001:00013f8b       ___acrt_LocaleNameToLCID@8 10014f8b f   libucrt:winapi_thunks.obj
 0001:00013fbc       ___acrt_MessageBoxW@16     10014fbc f   libucrt:winapi_thunks.obj
 0001:00013fee       ___acrt_can_show_message_box 10014fee f   libucrt:winapi_thunks.obj
 0001:00014015       ___acrt_get_parent_window  10015015 f   libucrt:winapi_thunks.obj
 0001:0001407d       ___acrt_initialize_winapi_thunks 1001507d f   libucrt:winapi_thunks.obj
 0001:000140a8       ___acrt_is_interactive     100150a8 f   libucrt:winapi_thunks.obj
 0001:00014147       ___acrt_uninitialize_winapi_thunks 10015147 f   libucrt:winapi_thunks.obj
 0001:0001417d       ___acrt_initialize_heap    1001517d f   libucrt:heap_handle.obj
 0001:0001418e       ___acrt_uninitialize_heap  1001518e f   libucrt:heap_handle.obj
 0001:00014198       ___acrt_execute_initializers 10015198 f   libucrt:shared_initialization.obj
 0001:00014200       ___acrt_execute_uninitializers 10015200 f   libucrt:shared_initialization.obj
 0001:00014231       ___acrt_has_user_matherr   10015231 f   libucrt:matherr.obj
 0001:00014249       ___acrt_initialize_user_matherr 10015249 f   libucrt:matherr.obj
 0001:00014258       ___acrt_invoke_user_matherr 10015258 f   libucrt:matherr.obj
 0001:00014290       ___ascii_strnicmp          10015290 f   libucrt:_strnicm.obj
 0001:000144db       ___acrt_LCMapStringA       100154db f   libucrt:lcmapstringa.obj
 0001:00014524       ___pctype_func             10015524 f   libucrt:ctype.obj
 0001:00014548       _iswctype                  10015548 f   libucrt:iswctype.obj
 0001:000145b1       __isctype_l                100155b1 f   libucrt:isctype.obj
 0001:0001467c       ___acrt_add_locale_ref     1001567c f   libucrt:locale_refcounting.obj
 0001:000146f9       ___acrt_free_locale        100156f9 f   libucrt:locale_refcounting.obj
 0001:00014841       ___acrt_locale_add_lc_time_reference 10015841 f   libucrt:locale_refcounting.obj
 0001:0001486a       ___acrt_locale_free_lc_time_if_unreferenced 1001586a f   libucrt:locale_refcounting.obj
 0001:0001489b       ___acrt_locale_release_lc_time_reference 1001589b f   libucrt:locale_refcounting.obj
 0001:000148c4       ___acrt_release_locale_ref 100158c4 f   libucrt:locale_refcounting.obj
 0001:00014945       ___acrt_update_thread_locale_data 10015945 f   libucrt:locale_refcounting.obj
 0001:000149c6       __updatetlocinfoEx_nolock  100159c6 f   libucrt:locale_refcounting.obj
 0001:00014a16       __query_new_mode           10015a16 f   libucrt:new_mode.obj
 0001:00014a1d       __isleadbyte_l             10015a1d f i libucrt:_wctype.obj
 0001:00014a83       ?__mbrtowc_utf8@__crt_mbstring@@YAIPA_WPBDIPAU_Mbstatet@@@Z 10015a83 f   libucrt:mbrtowc.obj
 0001:00014ac3       ?__mbsrtowcs_utf8@__crt_mbstring@@YAIPA_WPAPBDIPAU_Mbstatet@@@Z 10015ac3 f   libucrt:mbrtowc.obj
 0001:00014bbe       ?__c32rtomb_utf8@__crt_mbstring@@YAIPAD_UPAU_Mbstatet@@@Z 10015bbe f   libucrt:c32rtomb.obj
 0001:00014c69       ?return_illegal_sequence@__crt_mbstring@@YAIPAU_Mbstatet@@@Z 10015c69 f i libucrt:c32rtomb.obj
 0001:00014d02       ___acrt_fp_strflt_to_string 10015d02 f   libucrt:_fptostr.obj
 0001:00014de0       ?divide@__crt_strtox@@YA_KAAUbig_integer@1@ABU21@@Z 10015de0 f i libucrt:cfout.obj
 0001:00015278       ___acrt_fltout             10016278 f   libucrt:cfout.obj
 0001:0001677f       _fegetround                1001777f f   libucrt:fegetround.obj
 0001:00016b8f       ___acrt_stdio_flush_and_write_narrow_nolock 10017b8f f   libucrt:_flsbuf.obj
 0001:00016b9a       ___acrt_stdio_flush_and_write_wide_nolock 10017b9a f   libucrt:_flsbuf.obj
 0001:00016ba5       __fcloseall                10017ba5 f   libucrt:closeall.obj
 0001:00016c50       ___acrt_stdio_free_buffer_nolock 10017c50 f   libucrt:_freebuf.obj
 0001:00016c90       __isatty                   10017c90 f   libucrt:isatty.obj
 0001:00016ce6       ___acrt_locale_free_monetary 10017ce6 f   libucrt:initmon.obj
 0001:00016de4       ___acrt_locale_free_numeric 10017de4 f   libucrt:initnum.obj
 0001:00016e85       ___acrt_locale_free_time   10017e85 f   libucrt:inittime.obj
 0001:00016f69       ___acrt_GetStringTypeA     10017f69 f   libucrt:getstringtypea.obj
 0001:0001706c       ___acrt_lowio_create_handle_array 1001806c f   libucrt:osfinfo.obj
 0001:000170e7       ___acrt_lowio_destroy_handle_array 100180e7 f   libucrt:osfinfo.obj
 0001:0001711c       ___acrt_lowio_ensure_fh_exists 1001811c f   libucrt:osfinfo.obj
 0001:000171ba       ___acrt_lowio_lock_fh      100181ba f   libucrt:osfinfo.obj
 0001:000171dd       ___acrt_lowio_unlock_fh    100181dd f   libucrt:osfinfo.obj
 0001:00017200       __free_osfhnd              10018200 f   libucrt:osfinfo.obj
 0001:00017291       __get_osfhandle            10018291 f   libucrt:osfinfo.obj
 0001:0001739d       __commit                   1001839d f   libucrt:commit.obj
 0001:00017b95       __write                    10018b95 f   libucrt:write.obj
 0001:00017c87       __write_nolock             10018c87 f   libucrt:write.obj
 0001:00017e70       _qsort                     10018e70 f   libucrt:qsort.obj
 0001:00018360       _strpbrk                   10019360 f   libucrt:strpbrk.obj
 0001:000183a0       __mbsdec                   100193a0 f   libucrt:mbsdec.obj
 0001:000183b7       __mbsdec_l                 100193b7 f   libucrt:mbsdec.obj
 0001:00018453       __msize_base               10019453 f   libucrt:msize.obj
 0001:00018486       __realloc_base             10019486 f   libucrt:realloc_base.obj
 0001:0001853f       ___acrt_DownlevelLocaleNameToLCID 1001953f f   libucrt:lcidtoname_downlevel.obj
 0001:0001856b       ___strncnt                 1001956b f   libucrt:strncnt.obj
 0001:00018587       ___acrt_GetStringTypeW     10019587 f   libucrt:getstringtypew.obj
 0001:000185a0       ?__mbrtoc32_utf8@__crt_mbstring@@YAIPA_UPBDIPAU_Mbstatet@@@Z 100195a0 f   libucrt:mbrtoc32.obj
 0001:00018747       __controlfp_s              10019747 f   libucrt:contrlfp.obj
 0001:000187a6       _fegetenv                  100197a6 f   libucrt:fegetenv.obj
 0001:000187c3       _fesetenv                  100197c3 f   libucrt:fesetenv.obj
 0001:0001880e       _feholdexcept              1001980e f   libucrt:feholdexcept.obj
 0001:00018860       __CIlog10                  10019860 f   libucrt:log10_impl.obj
 0001:0001889b       __CIlog10_default          1001989b f   libucrt:log10_impl.obj
 0001:000188af       __log10_default            100198af     libucrt:log10_impl.obj
 0001:00018970       _ceil                      10019970 f   libucrt:ceil_pentium4.obj
 0001:000189b0       __ceil_pentium4            100199b0 f   libucrt:ceil_pentium4.obj
 0001:00018daa       ___acrt_fenv_get_common_round_control 10019daa f   libucrt:_fenvutils.obj
 0001:00018dcc       ___acrt_fenv_get_control   10019dcc f   libucrt:_fenvutils.obj
 0001:00018e4c       ___acrt_fenv_get_status    10019e4c f   libucrt:_fenvutils.obj
 0001:00018f04       ___acrt_fenv_set_control   10019f04 f   libucrt:_fenvutils.obj
 0001:00018f6c       ___acrt_fenv_set_status    10019f6c f   libucrt:_fenvutils.obj
 0001:000191eb       __lseeki64                 1001a1eb f   libucrt:lseek.obj
 0001:00019206       __lseeki64_nolock          1001a206 f   libucrt:lseek.obj
 0001:00019221       ___acrt_stdio_allocate_buffer_nolock 1001a221 f   libucrt:_getbuf.obj
 0001:0001927d       __fclose_nolock            1001a27d f   libucrt:fclose.obj
 0001:000192f4       _fclose                    1001a2f4 f   libucrt:fclose.obj
 0001:00019378       ___ascii_wcsnicmp          1001a378 f   libucrt:wcsnicmp.obj
 0001:000193c7       __putwch_nolock            1001a3c7 f   libucrt:putwch.obj
 0001:000194a0       __clearfp                  1001a4a0 f   libucrt:ieee87.obj
 0001:0001957e       __control87                1001a57e f   libucrt:ieee87.obj
 0001:0001991d       ___acrt_initialize_sse2    1001a91d f   libucrt:mathfcns.obj
 0001:00019930       __CIlog10_pentium4         1001a930 f   libucrt:log10_pentium4.obj
 0001:00019948       __log10_pentium4           1001a948     libucrt:log10_pentium4.obj
 0001:00019be0       __fFEXP                    1001abe0 f   libucrt:87tran.obj
 0001:00019c37       __rtinfpopse               1001ac37     libucrt:87tran.obj
 0001:00019c39       __rtinfnpopse              1001ac39     libucrt:87tran.obj
 0001:00019c49       __fFLN                     1001ac49     libucrt:87tran.obj
 0001:00019cfe       __rtinfpop                 1001acfe     libucrt:87tran.obj
 0001:00019d00       __rtinfnpop                1001ad00     libucrt:87tran.obj
 0001:00019d10       __rtforexpinf              1001ad10 f   libucrt:87tran.obj
 0001:00019d1d       __ffexpm1                  1001ad1d     libucrt:87tran.obj
 0001:00019dd0       __trandisp1                1001add0 f   libucrt:87disp.obj
 0001:00019e45       __trandisp2                1001ae45 f   libucrt:87disp.obj
 0001:00019edf       __rttospopde               1001aedf     libucrt:87disp.obj
 0001:00019ee4       __rttospop                 1001aee4     libucrt:87disp.obj
 0001:00019ef0       __rtnospop                 1001aef0 f   libucrt:87disp.obj
 0001:00019f00       __rttosnpop                1001af00 f   libucrt:87disp.obj
 0001:00019f01       __rtnospopde               1001af01     libucrt:87disp.obj
 0001:00019f08       __rtzeropop                1001af08     libucrt:87disp.obj
 0001:00019f0a       __rtzeronpop               1001af0a     libucrt:87disp.obj
 0001:00019f10       __rtzerospop               1001af10 f   libucrt:87disp.obj
 0001:00019f1d       __rtonepop                 1001af1d     libucrt:87disp.obj
 0001:00019f20       __rtonenpop                1001af20 f   libucrt:87disp.obj
 0001:00019f30       __tosnan1                  1001af30 f   libucrt:87disp.obj
 0001:00019f60       __nosnan2                  1001af60 f   libucrt:87disp.obj
 0001:00019f70       __tosnan2                  1001af70 f   libucrt:87disp.obj
 0001:00019fa0       __nan2                     1001afa0 f   libucrt:87disp.obj
 0001:00019fe0       __rtindfpop                1001afe0 f   libucrt:87disp.obj
 0001:00019fe2       __rtindfnpop               1001afe2     libucrt:87disp.obj
 0001:00019ff3       __rttosnpopde              1001aff3     libucrt:87disp.obj
 0001:0001a000       __rtatan2inf               1001b000 f   libucrt:87disp.obj
 0001:0001a01d       __rtchsifneg               1001b01d     libucrt:87disp.obj
 0001:0001a030       __twoToTOS                 1001b030 f   libucrt:common.obj
 0001:0001a045       __load_CW                  1001b045 f   libucrt:common.obj
 0001:0001a05c       __convertTOStoQNaN         1001b05c f   libucrt:common.obj
 0001:0001a075       __fload_withFB             1001b075 f   libucrt:common.obj
 0001:0001a0b8       __checkTOS_withFB          1001b0b8 f   libucrt:common.obj
 0001:0001a0ce       __fast_exit                1001b0ce f   libucrt:common.obj
 0001:0001a0db       __math_exit                1001b0db f   libucrt:common.obj
 0001:0001a105       __check_overflow_exit      1001b105 f   libucrt:common.obj
 0001:0001a119       __check_range_exit         1001b119 f   libucrt:common.obj
 0001:0001a1c0       __startTwoArgErrorHandling 1001b1c0 f   libucrt:genexcep.obj
 0001:0001a1d7       __startOneArgErrorHandling 1001b1d7 f   libucrt:genexcep.obj
 0001:0001a213       ___libm_error_support      1001b213 f   libucrt:libm_error.obj
 0001:0001a407       __ceil_default             1001b407 f   libucrt:ceil.obj
 0001:0001a548       __close                    1001b548 f   libucrt:close.obj
 0001:0001a5d5       __close_nolock             1001b5d5 f   libucrt:close.obj
 0001:0001a671       ?__acrt_stdio_free_stream@@YAXV__crt_stdio_stream@@@Z 1001b671 f   libucrt:stream.obj
 0001:0001a6cb       ___dcrt_lowio_ensure_console_output_initialized 1001b6cb f   libucrt:initcon.obj
 0001:0001a6ea       ___dcrt_terminate_console_output 1001b6ea f   libucrt:initcon.obj
 0001:0001a701       ___dcrt_write_console      1001b701 f   libucrt:initcon.obj
 0001:0001a756       ___set_fpsr_sse2           1001b756 f   libucrt:fpctrl.obj
 0001:0001a7d6       __clrfp                    1001b7d6 f   libucrt:fpctrl.obj
 0001:0001a7e7       __ctrlfp                   1001b7e7 f   libucrt:fpctrl.obj
 0001:0001a811       __set_statfp               1001b811 f   libucrt:fpctrl.obj
 0001:0001a86a       __statfp                   1001b86a f   libucrt:fpctrl.obj
 0001:0001a87a       __d_inttype                1001b87a f   libucrt:powhlp.obj
 0001:0001a8e2       __powhlp                   1001b8e2 f   libucrt:powhlp.obj
 0001:0001aa0d       __87except                 1001ba0d f   libucrt:87except.obj
 0001:0001ab17       __frnd                     1001bb17 f   libucrt:frnd.obj
 0001:0001ab2b       __errcode                  1001bb2b f   libucrt:fpexcept.obj
 0001:0001ab5f       __except1                  1001bb5f f   libucrt:fpexcept.obj
 0001:0001ac2d       __handle_exc               1001bc2d f   libucrt:fpexcept.obj
 0001:0001ae18       __raise_exc                1001be18 f   libucrt:fpexcept.obj
 0001:0001ae3b       __raise_exc_ex             1001be3b f   libucrt:fpexcept.obj
 0001:0001b131       __set_errno_from_matherr   1001c131 f   libucrt:fpexcept.obj
 0001:0001b160       __umatherr                 1001c160 f   libucrt:fpexcept.obj
 0001:0001b200       __decomp                   1001c200 f   libucrt:util.obj
 0001:0001b2d2       __set_exp                  1001c2d2 f   libucrt:util.obj
 0001:0001b2ff       __sptype                   1001c2ff f   libucrt:util.obj
 0001:0001b35d       __fpclass                  1001c35d f   libucrt:ieeemisc.obj
 0001:0001b401       ?DloadAcquireSectionWriteAccess@@YGXXZ 1001c401 f i DelayImp:delayhlp.obj
 0001:0001b434       ?DloadGetSRWLockFunctionPointers@@YGEXZ 1001c434 f i DelayImp:delayhlp.obj
 0001:0001b4a7       ?DloadLock@@YGXXZ          1001c4a7 f i DelayImp:delayhlp.obj
 0001:0001b4e6       ?DloadMakePermanentImageCommit@@YGXPAXK@Z 1001c4e6 f i DelayImp:delayhlp.obj
 0001:0001b555       ?DloadObtainSection@@YGPAXPAK0@Z 1001c555 f i DelayImp:delayhlp.obj
 0001:0001b5d0       ?DloadProtectSection@@YGXKPAK@Z 1001c5d0 f i DelayImp:delayhlp.obj
 0001:0001b63e       ?DloadReleaseSectionWriteAccess@@YGXXZ 1001c63e f i DelayImp:delayhlp.obj
 0001:0001b674       ?DloadUnlock@@YGXXZ        1001c674 f i DelayImp:delayhlp.obj
 0001:0001b6a0       ___delayLoadHelper2@8      1001c6a0 f   DelayImp:delayhlp.obj
 0001:0001b910       __FindPESection            1001c910 f   LIBCMT:pesect.obj
 0001:0001b960       __IsNonwritableInCurrentImage 1001c960 f   LIBCMT:pesect.obj
 0001:0001ba20       __ValidateImageBase        1001ca20 f   LIBCMT:pesect.obj
 0001:0001ba53       __EH_prolog3_catch         1001ca53 f   LIBCMT:ehprolg3.obj
 0001:0001ba90       __aulldvrm                 1001ca90 f   LIBCMT:ulldvrm.obj
 0001:0001bb30       __alloca_probe_16          1001cb30 f   LIBCMT:alloca16.obj
 0001:0001bb46       __alloca_probe_8           1001cb46     LIBCMT:alloca16.obj
 0001:0001bb60       __allmul                   1001cb60 f   LIBCMT:llmul.obj
 0001:0001bba0       __alldvrm                  1001cba0 f   LIBCMT:lldvrm.obj
 0001:0001bc80       __allshl                   1001cc80 f   LIBCMT:llshl.obj
 0001:0001bca0       __aullshr                  1001cca0 f   LIBCMT:ullshr.obj
 0001:0001bcc0       __ftol2_sse                1001ccc0 f   LIBCMT:ftol2.obj
 0001:0001bcd0       __ftoi2                    1001ccd0 f   LIBCMT:ftol2.obj
 0001:0001bd50       __alloca_probe             1001cd50 f   LIBCMT:chkstk.obj
 0001:0001bd50       __chkstk                   1001cd50 f   LIBCMT:chkstk.obj
 0001:0001bd80       _strrchr                   1001cd80 f   libvcruntime:strrchr.obj
 0001:0001beb7       __filter_x86_sse2_floating_point_exception_default 1001ceb7 f   LIBCMT:x86_exception_filter.obj
 0001:0001beb7       __filter_x86_sse2_floating_point_exception 1001ceb7 f   LIBCMT:x86_exception_filter.obj
 0002:00000000       __imp__RegQueryValueExA@24 1001f000     advapi32:ADVAPI32.dll
 0002:00000004       __imp__RegQueryInfoKeyA@48 1001f004     advapi32:ADVAPI32.dll
 0002:00000008       __imp__RegOpenKeyExA@20    1001f008     advapi32:ADVAPI32.dll
 0002:0000000c       __imp__RegEnumKeyExA@32    1001f00c     advapi32:ADVAPI32.dll
 0002:00000010       __imp__RegCloseKey@4       1001f010     advapi32:ADVAPI32.dll
 0002:00000014       \177ADVAPI32_NULL_THUNK_DATA 1001f014     advapi32:ADVAPI32.dll
 0002:00000018       __imp__GetCommMask@8       1001f018     kernel32:KERNEL32.dll
 0002:0000001c       __imp__ExitThread@4        1001f01c     kernel32:KERNEL32.dll
 0002:00000020       __imp__GetModuleHandleA@4  1001f020     kernel32:KERNEL32.dll
 0002:00000024       __imp__GetLastError@0      1001f024     kernel32:KERNEL32.dll
 0002:00000028       __imp__EscapeCommFunction@8 1001f028     kernel32:KERNEL32.dll
 0002:0000002c       __imp__CreateFileA@28      1001f02c     kernel32:KERNEL32.dll
 0002:00000030       __imp__LoadLibraryA@4      1001f030     kernel32:KERNEL32.dll
 0002:00000034       __imp__GetCommState@8      1001f034     kernel32:KERNEL32.dll
 0002:00000038       __imp__CloseHandle@4       1001f038     kernel32:KERNEL32.dll
 0002:0000003c       __imp__WaitForSingleObject@8 1001f03c     kernel32:KERNEL32.dll
 0002:00000040       __imp__CreateThread@24     1001f040     kernel32:KERNEL32.dll
 0002:00000044       __imp__GetOverlappedResult@16 1001f044     kernel32:KERNEL32.dll
 0002:00000048       __imp__SetCommMask@8       1001f048     kernel32:KERNEL32.dll
 0002:0000004c       __imp__GetProcAddress@8    1001f04c     kernel32:KERNEL32.dll
 0002:00000050       __imp__SleepEx@8           1001f050     kernel32:KERNEL32.dll
 0002:00000054       __imp__CreateEventA@16     1001f054     kernel32:KERNEL32.dll
 0002:00000058       __imp__SetCommTimeouts@8   1001f058     kernel32:KERNEL32.dll
 0002:0000005c       __imp__SetCommState@8      1001f05c     kernel32:KERNEL32.dll
 0002:00000060       __imp__FlushFileBuffers@4  1001f060     kernel32:KERNEL32.dll
 0002:00000064       __imp__VirtualQuery@12     1001f064     kernel32:KERNEL32.dll
 0002:00000068       __imp__WriteFileEx@20      1001f068     kernel32:KERNEL32.dll
 0002:0000006c       __imp__GetCommModemStatus@8 1001f06c     kernel32:KERNEL32.dll
 0002:00000070       __imp__PurgeComm@8         1001f070     kernel32:KERNEL32.dll
 0002:00000074       __imp__SetLastError@4      1001f074     kernel32:KERNEL32.dll
 0002:00000078       __imp__ReadFileEx@20       1001f078     kernel32:KERNEL32.dll
 0002:0000007c       __imp__ReadFile@20         1001f07c     kernel32:KERNEL32.dll
 0002:00000080       __imp__VirtualProtect@16   1001f080     kernel32:KERNEL32.dll
 0002:00000084       __imp__GetSystemInfo@4     1001f084     kernel32:KERNEL32.dll
 0002:00000088       __imp__CreateFileW@28      1001f088     kernel32:KERNEL32.dll
 0002:0000008c       __imp__DecodePointer@4     1001f08c     kernel32:KERNEL32.dll
 0002:00000090       __imp__HeapReAlloc@16      1001f090     kernel32:KERNEL32.dll
 0002:00000094       __imp__HeapSize@12         1001f094     kernel32:KERNEL32.dll
 0002:00000098       __imp__GetConsoleMode@8    1001f098     kernel32:KERNEL32.dll
 0002:0000009c       __imp__GetConsoleOutputCP@0 1001f09c     kernel32:KERNEL32.dll
 0002:000000a0       __imp__UnhandledExceptionFilter@4 1001f0a0     kernel32:KERNEL32.dll
 0002:000000a4       __imp__SetUnhandledExceptionFilter@4 1001f0a4     kernel32:KERNEL32.dll
 0002:000000a8       __imp__GetCurrentProcess@0 1001f0a8     kernel32:KERNEL32.dll
 0002:000000ac       __imp__TerminateProcess@8  1001f0ac     kernel32:KERNEL32.dll
 0002:000000b0       __imp__IsProcessorFeaturePresent@4 1001f0b0     kernel32:KERNEL32.dll
 0002:000000b4       __imp__IsDebuggerPresent@0 1001f0b4     kernel32:KERNEL32.dll
 0002:000000b8       __imp__GetStartupInfoW@4   1001f0b8     kernel32:KERNEL32.dll
 0002:000000bc       __imp__GetModuleHandleW@4  1001f0bc     kernel32:KERNEL32.dll
 0002:000000c0       __imp__QueryPerformanceCounter@4 1001f0c0     kernel32:KERNEL32.dll
 0002:000000c4       __imp__GetCurrentProcessId@0 1001f0c4     kernel32:KERNEL32.dll
 0002:000000c8       __imp__GetCurrentThreadId@0 1001f0c8     kernel32:KERNEL32.dll
 0002:000000cc       __imp__GetSystemTimeAsFileTime@4 1001f0cc     kernel32:KERNEL32.dll
 0002:000000d0       __imp__InitializeSListHead@4 1001f0d0     kernel32:KERNEL32.dll
 0002:000000d4       __imp__RtlUnwind@16        1001f0d4     kernel32:KERNEL32.dll
 0002:000000d8       __imp__RaiseException@16   1001f0d8     kernel32:KERNEL32.dll
 0002:000000dc       __imp__InterlockedFlushSList@4 1001f0dc     kernel32:KERNEL32.dll
 0002:000000e0       __imp__EncodePointer@4     1001f0e0     kernel32:KERNEL32.dll
 0002:000000e4       __imp__EnterCriticalSection@4 1001f0e4     kernel32:KERNEL32.dll
 0002:000000e8       __imp__LeaveCriticalSection@4 1001f0e8     kernel32:KERNEL32.dll
 0002:000000ec       __imp__DeleteCriticalSection@4 1001f0ec     kernel32:KERNEL32.dll
 0002:000000f0       __imp__InitializeCriticalSectionAndSpinCount@8 1001f0f0     kernel32:KERNEL32.dll
 0002:000000f4       __imp__TlsAlloc@0          1001f0f4     kernel32:KERNEL32.dll
 0002:000000f8       __imp__TlsGetValue@4       1001f0f8     kernel32:KERNEL32.dll
 0002:000000fc       __imp__TlsSetValue@8       1001f0fc     kernel32:KERNEL32.dll
 0002:00000100       __imp__TlsFree@4           1001f100     kernel32:KERNEL32.dll
 0002:00000104       __imp__FreeLibrary@4       1001f104     kernel32:KERNEL32.dll
 0002:00000108       __imp__LoadLibraryExW@12   1001f108     kernel32:KERNEL32.dll
 0002:0000010c       __imp__GetStdHandle@4      1001f10c     kernel32:KERNEL32.dll
 0002:00000110       __imp__GetFileType@4       1001f110     kernel32:KERNEL32.dll
 0002:00000114       __imp__GetModuleFileNameW@12 1001f114     kernel32:KERNEL32.dll
 0002:00000118       __imp__GetModuleHandleExW@12 1001f118     kernel32:KERNEL32.dll
 0002:0000011c       __imp__WriteConsoleW@20    1001f11c     kernel32:KERNEL32.dll
 0002:00000120       __imp__ExitProcess@4       1001f120     kernel32:KERNEL32.dll
 0002:00000124       __imp__HeapFree@12         1001f124     kernel32:KERNEL32.dll
 0002:00000128       __imp__HeapAlloc@12        1001f128     kernel32:KERNEL32.dll
 0002:0000012c       __imp__WriteFile@20        1001f12c     kernel32:KERNEL32.dll
 0002:00000130       __imp__OutputDebugStringW@4 1001f130     kernel32:KERNEL32.dll
 0002:00000134       __imp__FindClose@4         1001f134     kernel32:KERNEL32.dll
 0002:00000138       __imp__FindFirstFileExW@24 1001f138     kernel32:KERNEL32.dll
 0002:0000013c       __imp__FindNextFileW@8     1001f13c     kernel32:KERNEL32.dll
 0002:00000140       __imp__IsValidCodePage@4   1001f140     kernel32:KERNEL32.dll
 0002:00000144       __imp__GetACP@0            1001f144     kernel32:KERNEL32.dll
 0002:00000148       __imp__GetOEMCP@0          1001f148     kernel32:KERNEL32.dll
 0002:0000014c       __imp__GetCPInfo@8         1001f14c     kernel32:KERNEL32.dll
 0002:00000150       __imp__GetCommandLineA@0   1001f150     kernel32:KERNEL32.dll
 0002:00000154       __imp__GetCommandLineW@0   1001f154     kernel32:KERNEL32.dll
 0002:00000158       __imp__MultiByteToWideChar@24 1001f158     kernel32:KERNEL32.dll
 0002:0000015c       __imp__WideCharToMultiByte@32 1001f15c     kernel32:KERNEL32.dll
 0002:00000160       __imp__GetEnvironmentStringsW@0 1001f160     kernel32:KERNEL32.dll
 0002:00000164       __imp__FreeEnvironmentStringsW@4 1001f164     kernel32:KERNEL32.dll
 0002:00000168       __imp__LCMapStringW@24     1001f168     kernel32:KERNEL32.dll
 0002:0000016c       __imp__GetProcessHeap@0    1001f16c     kernel32:KERNEL32.dll
 0002:00000170       __imp__GetFileSizeEx@8     1001f170     kernel32:KERNEL32.dll
 0002:00000174       __imp__SetFilePointerEx@20 1001f174     kernel32:KERNEL32.dll
 0002:00000178       __imp__GetStringTypeW@16   1001f178     kernel32:KERNEL32.dll
 0002:0000017c       __imp__SetStdHandle@8      1001f17c     kernel32:KERNEL32.dll
 0002:00000180       __imp__LoadLibraryExA@12   1001f180     kernel32:KERNEL32.dll
 0002:00000184       \177KERNEL32_NULL_THUNK_DATA 1001f184     kernel32:KERNEL32.dll
 0002:00000188       __imp__SetupDiGetDeviceInstanceIdA@20 1001f188     setupapi:SETUPAPI.dll
 0002:0000018c       __imp__SetupDiOpenDevRegKey@24 1001f18c     setupapi:SETUPAPI.dll
 0002:00000190       __imp__SetupDiGetClassDevsA@16 1001f190     setupapi:SETUPAPI.dll
 0002:00000194       __imp__SetupDiDestroyDeviceInfoList@4 1001f194     setupapi:SETUPAPI.dll
 0002:00000198       __imp__SetupDiEnumDeviceInfo@12 1001f198     setupapi:SETUPAPI.dll
 0002:0000019c       __imp__SetupDiGetDeviceRegistryPropertyA@28 1001f19c     setupapi:SETUPAPI.dll
 0002:000001a0       \177SETUPAPI_NULL_THUNK_DATA 1001f1a0     setupapi:SETUPAPI.dll
 0002:000001a4       __imp__StringFromGUID2@12  1001f1a4     ole32:ole32.dll
 0002:000001a8       \177ole32_NULL_THUNK_DATA  1001f1a8     ole32:ole32.dll
 0002:000001ac       ___guard_check_icall_fptr  1001f1ac     LIBCMT:guard_support.obj
 0002:000001b0       ___xc_a                    1001f1b0     LIBCMT:initializers.obj
 0002:000001b8       __register_serialport_     1001f1b8     serialport.obj
 0002:000001bc       ___xc_z                    1001f1bc     LIBCMT:initializers.obj
 0002:000001c0       ___xi_a                    1001f1c0     LIBCMT:initializers.obj
 0002:000001c4       ___acrt_stdio_initializer  1001f1c4     libucrt:stdio_initializer.obj
 0002:000001c8       ___acrt_multibyte_initializer 1001f1c8     libucrt:multibyte_initializer.obj
 0002:000001cc       ___acrt_tran_sse2_initializer 1001f1cc     libucrt:sse2_initializer.obj
 0002:000001d0       ___xi_z                    1001f1d0     LIBCMT:initializers.obj
 0002:000001d4       ___xp_a                    1001f1d4     LIBCMT:initializers.obj
 0002:000001d8       ___acrt_locale_terminator  1001f1d8     libucrt:locale_initializer.obj
 0002:000001dc       ___dcrt_console_output_terminator 1001f1dc     libucrt:console_output_initializer.obj
 0002:000001e0       ___acrt_stdio_terminator   1001f1e0     libucrt:stdio_initializer.obj
 0002:000001e4       ___xp_z                    1001f1e4     LIBCMT:initializers.obj
 0002:000001e8       ___xt_a                    1001f1e8     LIBCMT:initializers.obj
 0002:000001ec       ___xt_z                    1001f1ec     LIBCMT:initializers.obj
 0002:000001f0       __sz_node_exe              1001f1f0     node:node.exe
 0002:00000200       ??_7exception@std@@6B@     1001f200     libcpmt:xthrow.obj
 0002:00000208       ??_C@_0BC@EOODALEL@Unknown?5exception@ 1001f208     libcpmt:xthrow.obj
 0002:00000220       ??_7bad_alloc@std@@6B@     1001f220     libcpmt:xthrow.obj
 0002:00000228       ??_C@_0P@GHFPNOJB@bad?5allocation@ 1001f228     libcpmt:xthrow.obj
 0002:0000023c       ??_7logic_error@std@@6B@   1001f23c     libcpmt:xthrow.obj
 0002:00000248       ??_7length_error@std@@6B@  1001f248     libcpmt:xthrow.obj
 0002:00000258       __pDefaultRawDllMain       1001f258     LIBCMT:dll_dllmain.obj
 0002:00000258       __pRawDllMain              1001f258     LIBCMT:dll_dllmain.obj
 0002:00000260       ??_7type_info@@6B@         1001f260     LIBCMT:std_type_info_static.obj
 0002:00000268       ??_7bad_array_new_length@std@@6B@ 1001f268     LIBCMT:throw_bad_alloc.obj
 0002:00000270       __pDestructExceptionObject 1001f270     libvcruntime:ehhelpers.obj
 0002:00000278       ??_7bad_exception@std@@6B@ 1001f278     libvcruntime:frame.obj
 0002:00000280       ??_C@_0O@DPKOEFFH@bad?5exception@ 1001f280     libvcruntime:frame.obj
 0002:00000610       ??_C@_08EHJDFFNH@__based?$CI@ 1001f610     libvcruntime:undname.obj
 0002:0000061c       ??_C@_07KOLFKCDI@__cdecl@  1001f61c     libvcruntime:undname.obj
 0002:00000624       ??_C@_08GHMPAG@__pascal@   1001f624     libvcruntime:undname.obj
 0002:00000630       ??_C@_09IFJBGAPI@__stdcall@ 1001f630     libvcruntime:undname.obj
 0002:0000063c       ??_C@_0L@NPHFGOKO@__thiscall@ 1001f63c     libvcruntime:undname.obj
 0002:00000648       ??_C@_0L@JMKHOMEK@__fastcall@ 1001f648     libvcruntime:undname.obj
 0002:00000654       ??_C@_0N@BCKKPABJ@__vectorcall@ 1001f654     libvcruntime:undname.obj
 0002:00000664       ??_C@_09HIJEGCPM@__clrcall@ 1001f664     libvcruntime:undname.obj
 0002:00000670       ??_C@_06GHPCKEAG@__eabi@   1001f670     libvcruntime:undname.obj
 0002:00000678       ??_C@_09IOPIDJLG@__swift_1@ 1001f678     libvcruntime:undname.obj
 0002:00000684       ??_C@_09KFNFGKHF@__swift_2@ 1001f684     libvcruntime:undname.obj
 0002:00000690       ??_C@_07JOMMBBKO@__ptr64@  1001f690     libvcruntime:undname.obj
 0002:00000698       ??_C@_0L@PILCLIHE@__restrict@ 1001f698     libvcruntime:undname.obj
 0002:000006a4       ??_C@_0M@GFIIJFMG@__unaligned@ 1001f6a4     libvcruntime:undname.obj
 0002:000006b0       ??_C@_09DHDLOLLB@restrict?$CI@ 1001f6b0     libvcruntime:undname.obj
 0002:000006bc       ??_C@_04NIHEBCM@?5new@     1001f6bc     libvcruntime:undname.obj
 0002:000006c4       ??_C@_07FPCDHGMM@?5delete@ 1001f6c4     libvcruntime:undname.obj
 0002:000006cc       ??_C@_01NEMOKFLO@?$DN@     1001f6cc     libvcruntime:undname.obj
 0002:000006d0       ??_C@_02GPIOPFAK@?$DO?$DO@ 1001f6d0     libvcruntime:undname.obj
 0002:000006d4       ??_C@_02FODMEDOG@?$DM?$DM@ 1001f6d4     libvcruntime:undname.obj
 0002:000006d8       ??_C@_01DCLJPIOD@?$CB@     1001f6d8     libvcruntime:undname.obj
 0002:000006dc       ??_C@_02EGOFBIJA@?$DN?$DN@ 1001f6dc     libvcruntime:undname.obj
 0002:000006e0       ??_C@_02FDNJECIE@?$CB?$DN@ 1001f6e0     libvcruntime:undname.obj
 0002:000006e4       ??_C@_02GPECMEKF@?$FL?$FN@ 1001f6e4     libvcruntime:undname.obj
 0002:000006e8       ??_C@_08LHJFAFGD@operator@ 1001f6e8     libvcruntime:undname.obj
 0002:000006f4       ??_C@_02HBOOOICD@?9?$DO@   1001f6f4     libvcruntime:undname.obj
 0002:000006f8       ??_C@_01NBENCBCI@?$CK@     1001f6f8     libvcruntime:undname.obj
 0002:000006fc       ??_C@_02ECNGHCIF@?$CL?$CL@ 1001f6fc     libvcruntime:undname.obj
 0002:00000700       ??_C@_02BAABKJLB@?9?9@     1001f700     libvcruntime:undname.obj
 0002:00000704       ??_C@_01JOAMLHOP@?9@       1001f704     libvcruntime:undname.obj
 0002:00000708       ??_C@_01MIFGBAGJ@?$CL@     1001f708     libvcruntime:undname.obj
 0002:0000070c       ??_C@_01HNPIGOCE@?$CG@     1001f70c     libvcruntime:undname.obj
 0002:00000710       ??_C@_03MNHNFDLC@?9?$DO?$CK@ 1001f710     libvcruntime:undname.obj
 0002:00000714       ??_C@_01KMDKNFGN@?1@       1001f714     libvcruntime:undname.obj
 0002:00000718       ??_C@_01FGNFDNOH@?$CF@     1001f718     libvcruntime:undname.obj
 0002:0000071c       ??_C@_01MNNFJEPP@?$DM@     1001f71c     libvcruntime:undname.obj
 0002:00000720       ??_C@_02EHCHHCKH@?$DM?$DN@ 1001f720     libvcruntime:undname.obj
 0002:00000724       ??_C@_01PPODPGHN@?$DO@     1001f724     libvcruntime:undname.obj
 0002:00000728       ??_C@_02EEKDKGMJ@?$DO?$DN@ 1001f728     libvcruntime:undname.obj
 0002:0000072c       ??_C@_01IHBHIGKO@?0@       1001f72c     libvcruntime:undname.obj
 0002:00000730       ??_C@_02HCKGKOFO@?$CI?$CJ@ 1001f730     libvcruntime:undname.obj
 0002:00000734       ??_C@_01PJKLJHI@?$HO@      1001f734     libvcruntime:undname.obj
 0002:00000738       ??_C@_01JKBOJNNK@?$FO@     1001f738     libvcruntime:undname.obj
 0002:0000073c       ??_C@_01DNKMNLPK@?$HM@     1001f73c     libvcruntime:undname.obj
 0002:00000740       ??_C@_02PPKAJPJL@?$CG?$CG@ 1001f740     libvcruntime:undname.obj
 0002:00000744       ??_C@_02NONPIBCD@?$HM?$HM@ 1001f744     libvcruntime:undname.obj
 0002:00000748       ??_C@_02FPIMKNGF@?$CK?$DN@ 1001f748     libvcruntime:undname.obj
 0002:0000074c       ??_C@_02FOEOMHFC@?$CL?$DN@ 1001f74c     libvcruntime:undname.obj
 0002:00000750       ??_C@_02FKMDLLOA@?9?$DN@   1001f750     libvcruntime:undname.obj
 0002:00000754       ??_C@_02FJEHGPIO@?1?$DN@   1001f754     libvcruntime:undname.obj
 0002:00000758       ??_C@_02FENAOKFI@?$CF?$DN@ 1001f758     libvcruntime:undname.obj
 0002:0000075c       ??_C@_03IKFCCPFF@?$DO?$DO?$DN@ 1001f75c     libvcruntime:undname.obj
 0002:00000760       ??_C@_03CDNPDDLA@?$DM?$DM?$DN@ 1001f760     libvcruntime:undname.obj
 0002:00000764       ??_C@_02FGJGFEAB@?$CG?$DN@ 1001f764     libvcruntime:undname.obj
 0002:00000768       ??_C@_02DHLNPPGH@?$HM?$DN@ 1001f768     libvcruntime:undname.obj
 0002:0000076c       ??_C@_02MHEGNOJ@?$FO?$DN@  1001f76c     libvcruntime:undname.obj
 0002:00000770       ??_C@_09IFPLHPGF@?$GAvftable?8@ 1001f770     libvcruntime:undname.obj
 0002:0000077c       ??_C@_09BLBHBJP@?$GAvbtable?8@ 1001f77c     libvcruntime:undname.obj
 0002:00000788       ??_C@_07FEEIOKP@?$GAvcall?8@ 1001f788     libvcruntime:undname.obj
 0002:00000790       ??_C@_08LLFFHHDJ@?$GAtypeof?8@ 1001f790     libvcruntime:undname.obj
 0002:0000079c       ??_C@_0BF@KDPPACIK@?$GAlocal?5static?5guard?8@ 1001f79c     libvcruntime:undname.obj
 0002:000007b4       ??_C@_08OBABFOLI@?$GAstring?8@ 1001f7b4     libvcruntime:undname.obj
 0002:000007c0       ??_C@_0BD@JDLKDPAB@?$GAvbase?5destructor?8@ 1001f7c0     libvcruntime:undname.obj
 0002:000007d4       ??_C@_0BN@DEGPLNFK@?$GAvector?5deleting?5destructor?8@ 1001f7d4     libvcruntime:undname.obj
 0002:000007f4       ??_C@_0BO@OBMKPJIG@?$GAdefault?5constructor?5closure?8@ 1001f7f4     libvcruntime:undname.obj
 0002:00000814       ??_C@_0BN@IMDCHIKM@?$GAscalar?5deleting?5destructor?8@ 1001f814     libvcruntime:undname.obj
 0002:00000834       ??_C@_0BO@PFGOCPJJ@?$GAvector?5constructor?5iterator?8@ 1001f834     libvcruntime:undname.obj
 0002:00000854       ??_C@_0BN@LFPFMEDL@?$GAvector?5destructor?5iterator?8@ 1001f854     libvcruntime:undname.obj
 0002:00000874       ??_C@_0CE@IKBNEHA@?$GAvector?5vbase?5constructor?5itera@ 1001f874     libvcruntime:undname.obj
 0002:00000898       ??_C@_0BL@NILFHHPC@?$GAvirtual?5displacement?5map?8@ 1001f898     libvcruntime:undname.obj
 0002:000008b4       ??_C@_0CB@JONCMFFK@?$GAeh?5vector?5constructor?5iterator@ 1001f8b4     libvcruntime:undname.obj
 0002:000008d8       ??_C@_0CA@GCEOPDGL@?$GAeh?5vector?5destructor?5iterator?8@ 1001f8d8     libvcruntime:undname.obj
 0002:000008f8       ??_C@_0CH@OOJPLCPH@?$GAeh?5vector?5vbase?5constructor?5it@ 1001f8f8     libvcruntime:undname.obj
 0002:00000920       ??_C@_0BL@LLKPOHJI@?$GAcopy?5constructor?5closure?8@ 1001f920     libvcruntime:undname.obj
 0002:0000093c       ??_C@_0BA@KBCDOMBN@?$GAudt?5returning?8@ 1001f93c     libvcruntime:undname.obj
 0002:0000094c       ??_C@_03KLGMFNMG@?$GAEH@   1001f94c     libvcruntime:undname.obj
 0002:00000950       ??_C@_05KHLCHHI@?$GARTTI@  1001f950     libvcruntime:undname.obj
 0002:00000958       ??_C@_0BA@KKLDJDLB@?$GAlocal?5vftable?8@ 1001f958     libvcruntime:undname.obj
 0002:00000968       ??_C@_0CE@IIHCMGGL@?$GAlocal?5vftable?5constructor?5clos@ 1001f968     libvcruntime:undname.obj
 0002:0000098c       ??_C@_06FHBGPFGH@?5new?$FL?$FN@ 1001f98c     libvcruntime:undname.obj
 0002:00000994       ??_C@_09LBNFPBCA@?5delete?$FL?$FN@ 1001f994     libvcruntime:undname.obj
 0002:000009a0       ??_C@_0P@HJKNJFNN@?$GAomni?5callsig?8@ 1001f9a0     libvcruntime:undname.obj
 0002:000009b0       ??_C@_0BL@CNOONJFP@?$GAplacement?5delete?5closure?8@ 1001f9b0     libvcruntime:undname.obj
 0002:000009cc       ??_C@_0BN@CKNJLHMB@?$GAplacement?5delete?$FL?$FN?5closure?8@ 1001f9cc     libvcruntime:undname.obj
 0002:000009ec       ??_C@_0CG@CFDHKGGD@?$GAmanaged?5vector?5constructor?5ite@ 1001f9ec     libvcruntime:undname.obj
 0002:00000a14       ??_C@_0CF@IMGKMJNO@?$GAmanaged?5vector?5destructor?5iter@ 1001fa14     libvcruntime:undname.obj
 0002:00000a3c       ??_C@_0CG@HLDDJMAG@?$GAeh?5vector?5copy?5constructor?5ite@ 1001fa3c     libvcruntime:undname.obj
 0002:00000a64       ??_C@_0CM@FCBBDIGB@?$GAeh?5vector?5vbase?5copy?5construct@ 1001fa64     libvcruntime:undname.obj
 0002:00000a90       ??_C@_0BL@CLIPGLGB@?$GAdynamic?5initializer?5for?5?8@ 1001fa90     libvcruntime:undname.obj
 0002:00000aac       ??_C@_0CB@PDBIFEP@?$GAdynamic?5atexit?5destructor?5for?5@ 1001faac     libvcruntime:undname.obj
 0002:00000ad0       ??_C@_0CD@CGAJBKEJ@?$GAvector?5copy?5constructor?5iterat@ 1001fad0     libvcruntime:undname.obj
 0002:00000af4       ??_C@_0CJ@GJELGAMM@?$GAvector?5vbase?5copy?5constructor?5@ 1001faf4     libvcruntime:undname.obj
 0002:00000b20       ??_C@_0CL@FGIJHLCE@?$GAmanaged?5vector?5copy?5constructo@ 1001fb20     libvcruntime:undname.obj
 0002:00000b4c       ??_C@_0BM@PMGGMLDN@?$GAlocal?5static?5thread?5guard?8@ 1001fb4c     libvcruntime:undname.obj
 0002:00000b68       ??_C@_0N@BDNMDMOL@operator?5?$CC?$CC?5@ 1001fb68     libvcruntime:undname.obj
 0002:00000b78       ??_C@_0BC@GGEBGALA@operator?5co_await@ 1001fb78     libvcruntime:undname.obj
 0002:00000b8c       ??_C@_0M@GAAIMMOH@operator?$DM?$DN?$DO@ 1001fb8c     libvcruntime:undname.obj
 0002:00000b98       ??_C@_0BC@DAFEJGAK@?5Type?5Descriptor?8@ 1001fb98     libvcruntime:undname.obj
 0002:00000bac       ??_C@_0BM@LDKODKLH@?5Base?5Class?5Descriptor?5at?5?$CI@ 1001fbac     libvcruntime:undname.obj
 0002:00000bc8       ??_C@_0BD@LGICGFMM@?5Base?5Class?5Array?8@ 1001fbc8     libvcruntime:undname.obj
 0002:00000bdc       ??_C@_0BN@MECKDCOJ@?5Class?5Hierarchy?5Descriptor?8@ 1001fbdc     libvcruntime:undname.obj
 0002:00000bfc       ??_C@_0BK@CFCOFLF@?5Complete?5Object?5Locator?8@ 1001fbfc     libvcruntime:undname.obj
 0002:00000c18       ??_C@_0BG@JNJLAMPM@?$GAanonymous?5namespace?8@ 1001fc18     libvcruntime:undname.obj
 0002:00000c3c       ??_C@_1DM@KHCHBNEB@?$AAa?$AAp?$AAi?$AA?9?$AAm?$AAs?$AA?9?$AAw?$AAi?$AAn?$AA?9?$AAc?$AAo?$AAr?$AAe@ 1001fc3c     libvcruntime:winapi_downlevel.obj
 0002:00000c78       ??_C@_1DK@LPPGFMPP@?$AAa?$AAp?$AAi?$AA?9?$AAm?$AAs?$AA?9?$AAw?$AAi?$AAn?$AA?9?$AAc?$AAo?$AAr?$AAe@ 1001fc78     libvcruntime:winapi_downlevel.obj
 0002:00000cb4       ??_C@_1BC@GDMECMAK@?$AAk?$AAe?$AAr?$AAn?$AAe?$AAl?$AA3?$AA2@ 1001fcb4     libvcruntime:winapi_downlevel.obj
 0002:00000cc8       ??_C@_1BA@PFFKHIOG@?$AAa?$AAp?$AAi?$AA?9?$AAm?$AAs?$AA?9@ 1001fcc8     libvcruntime:winapi_downlevel.obj
 0002:00000ce0       ??_C@_08KNHFBNJ@FlsAlloc@  1001fce0     libvcruntime:winapi_downlevel.obj
 0002:00000cf4       ??_C@_07PEJMOBNF@FlsFree@  1001fcf4     libvcruntime:winapi_downlevel.obj
 0002:00000d04       ??_C@_0M@GDNOONDI@FlsGetValue@ 1001fd04     libvcruntime:winapi_downlevel.obj
 0002:00000d18       ??_C@_0M@JCPCPOEF@FlsSetValue@ 1001fd18     libvcruntime:winapi_downlevel.obj
 0002:00000d2c       ??_C@_0BM@HCFOFFN@InitializeCriticalSectionEx@ 1001fd2c     libvcruntime:winapi_downlevel.obj
 0002:00000d48       ?standard_lookup_table_spectre@__crt_stdio_output@@3V?$spectre_mitigated_lookup_table@Ustate_transition_pair@__crt_stdio_output@@$0IA@@1@B 1001fd48     libucrt:output.obj
 0002:00001148       ?format_validation_lookup_table_spectre@__crt_stdio_output@@3V?$spectre_mitigated_lookup_table@Ustate_transition_pair@__crt_stdio_output@@$0IA@@1@B 10020148     libucrt:output.obj
 0002:00001548       ??_C@_1O@CEDCILHN@?$AA?$CI?$AAn?$AAu?$AAl?$AAl?$AA?$CJ@ 10020548     libucrt:output.obj
 0002:00001558       ??_C@_06OJHGLDPL@?$CInull?$CJ@ 10020558     libucrt:output.obj
 0002:00001560       ??_C@_1FE@LHBLIKM@?$AAA?$AAs?$AAs?$AAe?$AAr?$AAt?$AAi?$AAo?$AAn?$AA?5?$AAf?$AAa?$AAi?$AAl?$AAe@ 10020560     libucrt:assert.obj
 0002:000015b8       ??_C@_1EK@MBDPDCGA@?$AAM?$AAi?$AAc?$AAr?$AAo?$AAs?$AAo?$AAf?$AAt?$AA?5?$AAV?$AAi?$AAs?$AAu?$AAa@ 100205b8     libucrt:assert.obj
 0002:00001604       ??_C@_1CE@OJBNHDMO@?$AAA?$AAs?$AAs?$AAe?$AAr?$AAt?$AAi?$AAo?$AAn?$AA?5?$AAf?$AAa?$AAi?$AAl?$AAe@ 10020604     libucrt:assert.obj
 0002:00001628       ??_C@_1BE@PHKBBGE@?$AAP?$AAr?$AAo?$AAg?$AAr?$AAa?$AAm?$AA?3?$AA?5@ 10020628     libucrt:assert.obj
 0002:0000163c       ??_C@_1O@HEMHKNDC@?$AAF?$AAi?$AAl?$AAe?$AA?3?$AA?5@ 1002063c     libucrt:assert.obj
 0002:0000164c       ??_C@_1O@KCAFKHJE@?$AAL?$AAi?$AAn?$AAe?$AA?3?$AA?5@ 1002064c     libucrt:assert.obj
 0002:0000165c       ??_C@_1BK@PEDCIPMA@?$AAE?$AAx?$AAp?$AAr?$AAe?$AAs?$AAs?$AAi?$AAo?$AAn?$AA?3?$AA?5@ 1002065c     libucrt:assert.obj
 0002:00001678       ??_C@_1OA@EGMLFBHJ@?$AAF?$AAo?$AAr?$AA?5?$AAi?$AAn?$AAf?$AAo?$AAr?$AAm?$AAa?$AAt?$AAi?$AAo?$AAn@ 10020678     libucrt:assert.obj
 0002:00001758       ??_C@_1HK@POCJMFGK@?$AA?$CI?$AAP?$AAr?$AAe?$AAs?$AAs?$AA?5?$AAR?$AAe?$AAt?$AAr?$AAy?$AA?5?$AAt?$AAo@ 10020758     libucrt:assert.obj
 0002:000017d4       ??_C@_17LGKOMLJ@?$AA?4?$AA?4?$AA?4@ 100207d4     libucrt:assert.obj
 0002:000017dc       ??_C@_13LBAGMAIH@?$AA?6@   100207dc     libucrt:assert.obj
 0002:000017e0       ??_C@_15IABLJNFO@?$AA?6?$AA?6@ 100207e0     libucrt:assert.obj
 0002:000017e8       ??_C@_1CO@EAEJAADC@?$AA?$DM?$AAp?$AAr?$AAo?$AAg?$AAr?$AAa?$AAm?$AA?5?$AAn?$AAa?$AAm?$AAe?$AA?5?$AAu@ 100207e8     libucrt:assert.obj
 0002:00001818       ___acrt_exception_action_table 10020818     libucrt:exception_filter.obj
 0002:000018a8       ___acrt_signal_action_table_count 100208a8     libucrt:exception_filter.obj
 0002:000018ac       ___acrt_signal_action_first_fpe_index 100208ac     libucrt:exception_filter.obj
 0002:000018b0       ___acrt_signal_action_fpe_count 100208b0     libucrt:exception_filter.obj
 0002:000018b4       ??_C@_1BI@BGOHAHKC@?$AAm?$AAs?$AAc?$AAo?$AAr?$AAe?$AAe?$AA?4?$AAd?$AAl?$AAl@ 100208b4     libucrt:exit.obj
 0002:000018cc       ??_C@_0P@MIGLKIOC@CorExitProcess@ 100208cc     libucrt:exit.obj
 0002:00001b08       ??_C@_03OEIAHPBN@INF@      10020b08     libucrt:cvt.obj
 0002:00001b0c       ??_C@_03OJHLLCGB@inf@      10020b0c     libucrt:cvt.obj
 0002:00001b10       ??_C@_03LKNCIKJB@NAN@      10020b10     libucrt:cvt.obj
 0002:00001b14       ??_C@_03LHCJEHON@nan@      10020b14     libucrt:cvt.obj
 0002:00001b18       ??_C@_09OFJJIMPC@NAN?$CISNAN?$CJ@ 10020b18     libucrt:cvt.obj
 0002:00001b24       ??_C@_09IPFBKMDL@nan?$CIsnan?$CJ@ 10020b24     libucrt:cvt.obj
 0002:00001b30       ??_C@_08IKHNHAJ@NAN?$CIIND?$CJ@ 10020b30     libucrt:cvt.obj
 0002:00001b3c       ??_C@_08OFCDMILK@nan?$CIind?$CJ@ 10020b3c     libucrt:cvt.obj
 0002:00001b48       ??_C@_05KLBDPFGC@e?$CL000@ 10020b48     libucrt:cvt.obj
 0002:00001b50       ___lc_time_c               10020b50     libucrt:nlsdata.obj
 0002:00001cb4       ??_C@_03KOEHGMDN@Sun@      10020cb4     libucrt:nlsdata.obj
 0002:00001cb8       ??_C@_03PDAGKDH@Mon@       10020cb8     libucrt:nlsdata.obj
 0002:00001cbc       ??_C@_03NAGEINEP@Tue@      10020cbc     libucrt:nlsdata.obj
 0002:00001cc0       ??_C@_03MHOMLAJA@Wed@      10020cc0     libucrt:nlsdata.obj
 0002:00001cc4       ??_C@_03IOFIKPDN@Thu@      10020cc4     libucrt:nlsdata.obj
 0002:00001cc8       ??_C@_03IDIOELNC@Fri@      10020cc8     libucrt:nlsdata.obj
 0002:00001ccc       ??_C@_03FEFJNEK@Sat@       10020ccc     libucrt:nlsdata.obj
 0002:00001cd0       ??_C@_06OOPIFAJ@Sunday@    10020cd0     libucrt:nlsdata.obj
 0002:00001cd8       ??_C@_06JLEDEDGH@Monday@   10020cd8     libucrt:nlsdata.obj
 0002:00001ce0       ??_C@_07BAAGCFCM@Tuesday@  10020ce0     libucrt:nlsdata.obj
 0002:00001ce8       ??_C@_09DLIGFAKA@Wednesday@ 10020ce8     libucrt:nlsdata.obj
 0002:00001cf4       ??_C@_08HACCIKIA@Thursday@ 10020cf4     libucrt:nlsdata.obj
 0002:00001d00       ??_C@_06JECMNKMI@Friday@   10020d00     libucrt:nlsdata.obj
 0002:00001d08       ??_C@_08INBOOONO@Saturday@ 10020d08     libucrt:nlsdata.obj
 0002:00001d14       ??_C@_03JIHJHPIE@Jan@      10020d14     libucrt:nlsdata.obj
 0002:00001d18       ??_C@_03HJBDCHOM@Feb@      10020d18     libucrt:nlsdata.obj
 0002:00001d1c       ??_C@_03ODNJBKGA@Mar@      10020d1c     libucrt:nlsdata.obj
 0002:00001d20       ??_C@_03LEOLGMJP@Apr@      10020d20     libucrt:nlsdata.obj
 0002:00001d24       ??_C@_03CNMDKL@May@        10020d24     libucrt:nlsdata.obj
 0002:00001d28       ??_C@_03IDFGHECI@Jun@      10020d28     libucrt:nlsdata.obj
 0002:00001d2c       ??_C@_03LBGABGKK@Jul@      10020d2c     libucrt:nlsdata.obj
 0002:00001d30       ??_C@_03IFJFEIGA@Aug@      10020d30     libucrt:nlsdata.obj
 0002:00001d34       ??_C@_03GGCAPAJC@Sep@      10020d34     libucrt:nlsdata.obj
 0002:00001d38       ??_C@_03BMAOKBAD@Oct@      10020d38     libucrt:nlsdata.obj
 0002:00001d3c       ??_C@_03JPJOFNIA@Nov@      10020d3c     libucrt:nlsdata.obj
 0002:00001d40       ??_C@_03MKABNOCG@Dec@      10020d40     libucrt:nlsdata.obj
 0002:00001d44       ??_C@_07CGJPFGJA@January@  10020d44     libucrt:nlsdata.obj
 0002:00001d4c       ??_C@_08GNJGEPFN@February@ 10020d4c     libucrt:nlsdata.obj
 0002:00001d58       ??_C@_05HPCKOFNC@March@    10020d58     libucrt:nlsdata.obj
 0002:00001d60       ??_C@_05DMJDNLEJ@April@    10020d60     libucrt:nlsdata.obj
 0002:00001d68       ??_C@_04CNLMGBGM@June@     10020d68     libucrt:nlsdata.obj
 0002:00001d70       ??_C@_04MIEPOIFP@July@     10020d70     libucrt:nlsdata.obj
 0002:00001d78       ??_C@_06LBBHFDDG@August@   10020d78     libucrt:nlsdata.obj
 0002:00001d80       ??_C@_09BHHEALKD@September@ 10020d80     libucrt:nlsdata.obj
 0002:00001d8c       ??_C@_07JJNFCEND@October@  10020d8c     libucrt:nlsdata.obj
 0002:00001d94       ??_C@_08HCHEGEOA@November@ 10020d94     libucrt:nlsdata.obj
 0002:00001da0       ??_C@_08EDHMEBNP@December@ 10020da0     libucrt:nlsdata.obj
 0002:00001dac       ??_C@_02DEDBPAFC@AM@       10020dac     libucrt:nlsdata.obj
 0002:00001db0       ??_C@_02CJNFDJBF@PM@       10020db0     libucrt:nlsdata.obj
 0002:00001db4       ??_C@_08BPBNCDIB@MM?1dd?1yy@ 10020db4     libucrt:nlsdata.obj
 0002:00001dc0       ??_C@_0BE@CKGJFCPC@dddd?0?5MMMM?5dd?0?5yyyy@ 10020dc0     libucrt:nlsdata.obj
 0002:00001dd4       ??_C@_08JCCMCCIL@HH?3mm?3ss@ 10020dd4     libucrt:nlsdata.obj
 0002:00001de0       ??_C@_17MBGCMIPB@?$AAS?$AAu?$AAn@ 10020de0     libucrt:nlsdata.obj
 0002:00001de8       ??_C@_17KBOMKBF@?$AAM?$AAo?$AAn@ 10020de8     libucrt:nlsdata.obj
 0002:00001df0       ??_C@_17BMKGEGOJ@?$AAT?$AAu?$AAe@ 10020df0     libucrt:nlsdata.obj
 0002:00001df8       ??_C@_17CJEDCEPE@?$AAW?$AAe?$AAd@ 10020df8     libucrt:nlsdata.obj
 0002:00001e00       ??_C@_17PDPHAADD@?$AAT?$AAh?$AAu@ 10020e00     libucrt:nlsdata.obj
 0002:00001e08       ??_C@_17HFOLPPLP@?$AAF?$AAr?$AAi@ 10020e08     libucrt:nlsdata.obj
 0002:00001e10       ??_C@_17GGIBDPIH@?$AAS?$AAa?$AAt@ 10020e10     libucrt:nlsdata.obj
 0002:00001e18       ??_C@_1O@IHNHDHPB@?$AAS?$AAu?$AAn?$AAd?$AAa?$AAy@ 10020e18     libucrt:nlsdata.obj
 0002:00001e28       ??_C@_1O@MMNBFLIA@?$AAM?$AAo?$AAn?$AAd?$AAa?$AAy@ 10020e28     libucrt:nlsdata.obj
 0002:00001e38       ??_C@_1BA@ENFBFFEK@?$AAT?$AAu?$AAe?$AAs?$AAd?$AAa?$AAy@ 10020e38     libucrt:nlsdata.obj
 0002:00001e48       ??_C@_1BE@EBOGMDOH@?$AAW?$AAe?$AAd?$AAn?$AAe?$AAs?$AAd?$AAa?$AAy@ 10020e48     libucrt:nlsdata.obj
 0002:00001e5c       ??_C@_1BC@HHMNLIHE@?$AAT?$AAh?$AAu?$AAr?$AAs?$AAd?$AAa?$AAy@ 10020e5c     libucrt:nlsdata.obj
 0002:00001e70       ??_C@_1O@PDICJHAG@?$AAF?$AAr?$AAi?$AAd?$AAa?$AAy@ 10020e70     libucrt:nlsdata.obj
 0002:00001e80       ??_C@_1BC@ENMNNPAJ@?$AAS?$AAa?$AAt?$AAu?$AAr?$AAd?$AAa?$AAy@ 10020e80     libucrt:nlsdata.obj
 0002:00001e94       ??_C@_17DKNBKCHM@?$AAJ?$AAa?$AAn@ 10020e94     libucrt:nlsdata.obj
 0002:00001e9c       ??_C@_17LMDJEKJN@?$AAF?$AAe?$AAb@ 10020e9c     libucrt:nlsdata.obj
 0002:00001ea4       ??_C@_17CKNLEDEC@?$AAM?$AAa?$AAr@ 10020ea4     libucrt:nlsdata.obj
 0002:00001eac       ??_C@_17LFPOIHDD@?$AAA?$AAp?$AAr@ 10020eac     libucrt:nlsdata.obj
 0002:00001eb4       ??_C@_17PNNKMEED@?$AAM?$AAa?$AAy@ 10020eb4     libucrt:nlsdata.obj
 0002:00001ebc       ??_C@_17KCJGOCPB@?$AAJ?$AAu?$AAn@ 10020ebc     libucrt:nlsdata.obj
 0002:00001ec4       ??_C@_17IJPCKHK@?$AAJ?$AAu?$AAl@ 10020ec4     libucrt:nlsdata.obj
 0002:00001ecc       ??_C@_17ICPELBCN@?$AAA?$AAu?$AAg@ 10020ecc     libucrt:nlsdata.obj
 0002:00001ed4       ??_C@_17HCHCOKMG@?$AAS?$AAe?$AAp@ 10020ed4     libucrt:nlsdata.obj
 0002:00001edc       ??_C@_17FNLKOI@?$AAO?$AAc?$AAt@ 10020edc     libucrt:nlsdata.obj
 0002:00001ee4       ??_C@_17BBDMLCIG@?$AAN?$AAo?$AAv@ 10020ee4     libucrt:nlsdata.obj
 0002:00001eec       ??_C@_17EGKACKIF@?$AAD?$AAe?$AAc@ 10020eec     libucrt:nlsdata.obj
 0002:00001ef4       ??_C@_1BA@EFMEIEBA@?$AAJ?$AAa?$AAn?$AAu?$AAa?$AAr?$AAy@ 10020ef4     libucrt:nlsdata.obj
 0002:00001f04       ??_C@_1BC@JGDDFFAM@?$AAF?$AAe?$AAb?$AAr?$AAu?$AAa?$AAr?$AAy@ 10020f04     libucrt:nlsdata.obj
 0002:00001f18       ??_C@_1M@IKEENEDF@?$AAM?$AAa?$AAr?$AAc?$AAh@ 10020f18     libucrt:nlsdata.obj
 0002:00001f24       ??_C@_1M@GJNLMHFD@?$AAA?$AAp?$AAr?$AAi?$AAl@ 10020f24     libucrt:nlsdata.obj
 0002:00001f30       ??_C@_19EPFLPGAP@?$AAJ?$AAu?$AAn?$AAe@ 10020f30     libucrt:nlsdata.obj
 0002:00001f3c       ??_C@_19BIFMLPCD@?$AAJ?$AAu?$AAl?$AAy@ 10020f3c     libucrt:nlsdata.obj
 0002:00001f48       ??_C@_1O@PAHLKOAC@?$AAA?$AAu?$AAg?$AAu?$AAs?$AAt@ 10020f48     libucrt:nlsdata.obj
 0002:00001f58       ??_C@_1BE@DKAAMBJL@?$AAS?$AAe?$AAp?$AAt?$AAe?$AAm?$AAb?$AAe?$AAr@ 10020f58     libucrt:nlsdata.obj
 0002:00001f6c       ??_C@_1BA@EPANDLNG@?$AAO?$AAc?$AAt?$AAo?$AAb?$AAe?$AAr@ 10020f6c     libucrt:nlsdata.obj
 0002:00001f7c       ??_C@_1BC@BGLIFPF@?$AAN?$AAo?$AAv?$AAe?$AAm?$AAb?$AAe?$AAr@ 10020f7c     libucrt:nlsdata.obj
 0002:00001f90       ??_C@_1BC@FEMKIFH@?$AAD?$AAe?$AAc?$AAe?$AAm?$AAb?$AAe?$AAr@ 10020f90     libucrt:nlsdata.obj
 0002:00001fa4       ??_C@_15ODEHAHHF@?$AAA?$AAM@ 10020fa4     libucrt:nlsdata.obj
 0002:00001fac       ??_C@_15CLMNNGEL@?$AAP?$AAM@ 10020fac     libucrt:nlsdata.obj
 0002:00001fb4       ??_C@_1BC@IEBCMHCM@?$AAM?$AAM?$AA?1?$AAd?$AAd?$AA?1?$AAy?$AAy@ 10020fb4     libucrt:nlsdata.obj
 0002:00001fc8       ??_C@_1CI@KNAKOEBC@?$AAd?$AAd?$AAd?$AAd?$AA?0?$AA?5?$AAM?$AAM?$AAM?$AAM?$AA?5?$AAd?$AAd?$AA?0?$AA?5@ 10020fc8     libucrt:nlsdata.obj
 0002:00001ff0       ??_C@_1BC@GDGBMEMK@?$AAH?$AAH?$AA?3?$AAm?$AAm?$AA?3?$AAs?$AAs@ 10020ff0     libucrt:nlsdata.obj
 0002:00002004       ??_C@_1M@BMHNFIME@?$AAe?$AAn?$AA?9?$AAU?$AAS@ 10021004     libucrt:nlsdata.obj
 0002:00002020       ??_C@_1M@HPNHIDJI@?$AAj?$AAa?$AA?9?$AAJ?$AAP@ 10021020     libucrt:mbctype.obj
 0002:0000202c       ??_C@_1M@BIBDDEMK@?$AAz?$AAh?$AA?9?$AAC?$AAN@ 1002102c     libucrt:mbctype.obj
 0002:00002038       ??_C@_1M@JLOOOEGK@?$AAk?$AAo?$AA?9?$AAK?$AAR@ 10021038     libucrt:mbctype.obj
 0002:00002044       ??_C@_1M@CLNBBOPM@?$AAz?$AAh?$AA?9?$AAT?$AAW@ 10021044     libucrt:mbctype.obj
 0002:000020a0       ??_C@_1EA@JGEFHKEI@?$AAa?$AAp?$AAi?$AA?9?$AAm?$AAs?$AA?9?$AAw?$AAi?$AAn?$AA?9?$AAc?$AAo?$AAr?$AAe@ 100210a0     libucrt:winapi_thunks.obj
 0002:000020e0       ??_C@_1DI@IJCEHOCB@?$AAa?$AAp?$AAi?$AA?9?$AAm?$AAs?$AA?9?$AAw?$AAi?$AAn?$AA?9?$AAc?$AAo?$AAr?$AAe@ 100210e0     libucrt:winapi_thunks.obj
 0002:00002118       ??_C@_1EI@MPIAOHOC@?$AAa?$AAp?$AAi?$AA?9?$AAm?$AAs?$AA?9?$AAw?$AAi?$AAn?$AA?9?$AAc?$AAo?$AAr?$AAe@ 10021118     libucrt:winapi_thunks.obj
 0002:00002160       ??_C@_1FK@FPHCKFIE@?$AAa?$AAp?$AAi?$AA?9?$AAm?$AAs?$AA?9?$AAw?$AAi?$AAn?$AA?9?$AAc?$AAo?$AAr?$AAe@ 10021160     libucrt:winapi_thunks.obj
 0002:000021c0       ??_C@_1EM@DILCGIIO@?$AAa?$AAp?$AAi?$AA?9?$AAm?$AAs?$AA?9?$AAw?$AAi?$AAn?$AA?9?$AAc?$AAo?$AAr?$AAe@ 100211c0     libucrt:winapi_thunks.obj
 0002:0000220c       ??_C@_1DM@LNCGDDPN@?$AAa?$AAp?$AAi?$AA?9?$AAm?$AAs?$AA?9?$AAw?$AAi?$AAn?$AA?9?$AAc?$AAo?$AAr?$AAe@ 1002120c     libucrt:winapi_thunks.obj
 0002:00002248       ??_C@_1DO@FPAPJEMD@?$AAa?$AAp?$AAi?$AA?9?$AAm?$AAs?$AA?9?$AAw?$AAi?$AAn?$AA?9?$AAc?$AAo?$AAr?$AAe@ 10021248     libucrt:winapi_thunks.obj
 0002:00002288       ??_C@_1DK@NDHNAHIO@?$AAa?$AAp?$AAi?$AA?9?$AAm?$AAs?$AA?9?$AAw?$AAi?$AAn?$AA?9?$AAc?$AAo?$AAr?$AAe@ 10021288     libucrt:winapi_thunks.obj
 0002:000022c4       ??_C@_1DM@KGHDGBCM@?$AAa?$AAp?$AAi?$AA?9?$AAm?$AAs?$AA?9?$AAw?$AAi?$AAn?$AA?9?$AAc?$AAo?$AAr?$AAe@ 100212c4     libucrt:winapi_thunks.obj
 0002:00002300       ??_C@_1EO@IJIOEFOH@?$AAa?$AAp?$AAi?$AA?9?$AAm?$AAs?$AA?9?$AAw?$AAi?$AAn?$AA?9?$AAr?$AAt?$AAc?$AAo@ 10021300     libucrt:winapi_thunks.obj
 0002:00002350       ??_C@_1FG@HHGEKANL@?$AAa?$AAp?$AAi?$AA?9?$AAm?$AAs?$AA?9?$AAw?$AAi?$AAn?$AA?9?$AAs?$AAe?$AAc?$AAu@ 10021350     libucrt:winapi_thunks.obj
 0002:000023a8       ??_C@_1EG@DBIOJECG@?$AAe?$AAx?$AAt?$AA?9?$AAm?$AAs?$AA?9?$AAw?$AAi?$AAn?$AA?9?$AAn?$AAt?$AAu?$AAs@ 100213a8     libucrt:winapi_thunks.obj
 0002:000023f0       ??_C@_1EO@FIHMJCLF@?$AAe?$AAx?$AAt?$AA?9?$AAm?$AAs?$AA?9?$AAw?$AAi?$AAn?$AA?9?$AAn?$AAt?$AAu?$AAs@ 100213f0     libucrt:winapi_thunks.obj
 0002:00002440       ??_C@_1BC@DNHGCMLG@?$AAa?$AAd?$AAv?$AAa?$AAp?$AAi?$AA3?$AA2@ 10021440     libucrt:winapi_thunks.obj
 0002:00002454       ??_C@_1M@OAIMIKLP@?$AAn?$AAt?$AAd?$AAl?$AAl@ 10021454     libucrt:winapi_thunks.obj
 0002:00002460       ??_C@_1EG@DPGNFKGC@?$AAa?$AAp?$AAi?$AA?9?$AAm?$AAs?$AA?9?$AAw?$AAi?$AAn?$AA?9?$AAa?$AAp?$AAp?$AAm@ 10021460     libucrt:winapi_thunks.obj
 0002:000024a8       ??_C@_1O@BCCLBEOE@?$AAu?$AAs?$AAe?$AAr?$AA3?$AA2@ 100214a8     libucrt:winapi_thunks.obj
 0002:000024b8       ??_C@_1BA@IAIFMGEF@?$AAe?$AAx?$AAt?$AA?9?$AAm?$AAs?$AA?9@ 100214b8     libucrt:winapi_thunks.obj
 0002:000024cc       ??_C@_0BA@FHFNEAED@AreFileApisANSI@ 100214cc     libucrt:winapi_thunks.obj
 0002:00002504       ??_C@_0BA@HNOPNCHB@GetActiveWindow@ 10021504     libucrt:winapi_thunks.obj
 0002:0000251c       ??_C@_0BD@HHGDFDBJ@GetLastActivePopup@ 1002151c     libucrt:winapi_thunks.obj
 0002:00002538       ??_C@_0BI@DFKBFLJE@GetProcessWindowStation@ 10021538     libucrt:winapi_thunks.obj
 0002:00002558       ??_C@_0BK@DEKFELLI@GetUserObjectInformationW@ 10021558     libucrt:winapi_thunks.obj
 0002:00002584       ??_C@_0O@KKBNKAPF@LCMapStringEx@ 10021584     libucrt:winapi_thunks.obj
 0002:0000259c       ??_C@_0BB@HBDEELFH@LocaleNameToLCID@ 1002159c     libucrt:winapi_thunks.obj
 0002:000025b8       ??_C@_0M@CHKKJDAI@MessageBoxA@ 100215b8     libucrt:winapi_thunks.obj
 0002:000025cc       ??_C@_0M@DLDCCGNP@MessageBoxW@ 100215cc     libucrt:winapi_thunks.obj
 0002:000025dc       ??_C@_0CF@OJOFEIGO@AppPolicyGetProcessTerminationM@ 100215dc     libucrt:winapi_thunks.obj
 0002:00002608       ??_C@_0CE@OICFMIKE@AppPolicyGetShowDeveloperDiagno@ 10021608     libucrt:winapi_thunks.obj
 0002:00002630       ??_C@_0BL@ODDJNEDA@AppPolicyGetWindowingModel@ 10021630     libucrt:winapi_thunks.obj
 0002:00002650       ___newctype                10021650     libucrt:ctype.obj
 0002:00002950       ___newclmap                10021950     libucrt:ctype.obj
 0002:00002ad0       ___newcumap                10021ad0     libucrt:ctype.obj
 0002:00002c50       __wctype                   10021c50     libucrt:ctype.obj
 0002:00002e58       ?large_power_data@?1??multiply_by_power_of_ten@__crt_strtox@@YA_NAAUbig_integer@2@I@Z@4QBIB 10021e58     libucrt:cfout.obj
 0002:00003760       ?large_power_indices@?1??multiply_by_power_of_ten@__crt_strtox@@YA_NAAUbig_integer@2@I@Z@4QBUunpack_index@?1??12@YA_N0I@Z@B 10022760     libucrt:cfout.obj
 0002:000037f8       ?small_powers_of_ten@?1??multiply_by_power_of_ten@__crt_strtox@@YA_NAAUbig_integer@2@I@Z@4QBIB 100227f8     libucrt:cfout.obj
 0002:0000381c       ??_C@_01GBGANLPD@0@        1002281c     libucrt:cfout.obj
 0002:00003820       ??_C@_05DNEBIAHO@1?$CDINF@ 10022820     libucrt:cfout.obj
 0002:00003828       ??_C@_06IMKFLFPG@1?$CDQNAN@ 10022828     libucrt:cfout.obj
 0002:00003830       ??_C@_06PGGFOGJG@1?$CDSNAN@ 10022830     libucrt:cfout.obj
 0002:00003838       ??_C@_05PHHOCPM@1?$CDIND@  10022838     libucrt:cfout.obj
 0002:00003840       ??_C@_15PJPFLCCM@?$AAu?$AAk@ 10022840     libucrt:get_qualified_locale.obj
 0002:00003f68       ??_C@_15EMKDOKLE@?$AAa?$AAr@ 10022f68     libucrt:lcidtoname_downlevel.obj
 0002:00003f70       ??_C@_15KNPADPLH@?$AAb?$AAg@ 10022f70     libucrt:lcidtoname_downlevel.obj
 0002:00003f78       ??_C@_15EDMHLDMO@?$AAc?$AAa@ 10022f78     libucrt:lcidtoname_downlevel.obj
 0002:00003f80       ??_C@_1O@BPEAJADD@?$AAz?$AAh?$AA?9?$AAC?$AAH?$AAS@ 10022f80     libucrt:lcidtoname_downlevel.obj
 0002:00003f90       ??_C@_15LJNHCMNK@?$AAc?$AAs@ 10022f90     libucrt:lcidtoname_downlevel.obj
 0002:00003f98       ??_C@_15FOMCIDHG@?$AAd?$AAa@ 10022f98     libucrt:lcidtoname_downlevel.obj
 0002:00003fa0       ??_C@_15NBKABECB@?$AAd?$AAe@ 10022fa0     libucrt:lcidtoname_downlevel.obj
 0002:00003fa8       ??_C@_15GHPEIIAO@?$AAe?$AAl@ 10022fa8     libucrt:lcidtoname_downlevel.obj
 0002:00003fb0       ??_C@_15MNPNEAIF@?$AAe?$AAn@ 10022fb0     libucrt:lcidtoname_downlevel.obj
 0002:00003fb8       ??_C@_15GPIOMPMH@?$AAe?$AAs@ 10022fb8     libucrt:lcidtoname_downlevel.obj
 0002:00003fc0       ??_C@_15NGLOAKJC@?$AAf?$AAi@ 10022fc0     libucrt:lcidtoname_downlevel.obj
 0002:00003fc8       ??_C@_15FBKGNKAM@?$AAf?$AAr@ 10022fc8     libucrt:lcidtoname_downlevel.obj
 0002:00003fd0       ??_C@_15KGGCNEFK@?$AAh?$AAe@ 10022fd0     libucrt:lcidtoname_downlevel.obj
 0002:00003fd8       ??_C@_15PGHLIDMF@?$AAh?$AAu@ 10022fd8     libucrt:lcidtoname_downlevel.obj
 0002:00003fe0       ??_C@_15BIEMAPLM@?$AAi?$AAs@ 10022fe0     libucrt:lcidtoname_downlevel.obj
 0002:00003fe8       ??_C@_15IFJLDHAF@?$AAi?$AAt@ 10022fe8     libucrt:lcidtoname_downlevel.obj
 0002:00003ff0       ??_C@_15GEMIOCAG@?$AAj?$AAa@ 10022ff0     libucrt:lcidtoname_downlevel.obj
 0002:00003ff8       ??_C@_15EPELEGJA@?$AAk?$AAo@ 10022ff8     libucrt:lcidtoname_downlevel.obj
 0002:00004000       ??_C@_15NDDHIMN@?$AAn?$AAl@ 10023000     libucrt:lcidtoname_downlevel.obj
 0002:00004008       ??_C@_15BPIGNHCD@?$AAn?$AAo@ 10023008     libucrt:lcidtoname_downlevel.obj
 0002:00004010       ??_C@_15DEOPBLCG@?$AAp?$AAl@ 10023010     libucrt:lcidtoname_downlevel.obj
 0002:00004018       ??_C@_15KBECGEFG@?$AAp?$AAt@ 10023018     libucrt:lcidtoname_downlevel.obj
 0002:00004020       ??_C@_15GLJCBFMD@?$AAr?$AAo@ 10023020     libucrt:lcidtoname_downlevel.obj
 0002:00004028       ??_C@_15FEDGKCDI@?$AAr?$AAu@ 10023028     libucrt:lcidtoname_downlevel.obj
 0002:00004030       ??_C@_15GLKMLLHM@?$AAh?$AAr@ 10023030     libucrt:lcidtoname_downlevel.obj
 0002:00004038       ??_C@_15CPKMFBDB@?$AAs?$AAk@ 10023038     libucrt:lcidtoname_downlevel.obj
 0002:00004040       ??_C@_15BAAIOGMK@?$AAs?$AAq@ 10023040     libucrt:lcidtoname_downlevel.obj
 0002:00004048       ??_C@_15INNPNOHD@?$AAs?$AAv@ 10023048     libucrt:lcidtoname_downlevel.obj
 0002:00004050       ??_C@_15CABMMOGH@?$AAt?$AAh@ 10023050     libucrt:lcidtoname_downlevel.obj
 0002:00004058       ??_C@_15BPLIHJJM@?$AAt?$AAr@ 10023058     libucrt:lcidtoname_downlevel.obj
 0002:00004060       ??_C@_15NEOEKKDJ@?$AAu?$AAr@ 10023060     libucrt:lcidtoname_downlevel.obj
 0002:00004068       ??_C@_15NFICGAJK@?$AAi?$AAd@ 10023068     libucrt:lcidtoname_downlevel.obj
 0002:00004070       ??_C@_15HPJPHDM@?$AAb?$AAe@ 10023070     libucrt:lcidtoname_downlevel.obj
 0002:00004078       ??_C@_15LCHLGJII@?$AAs?$AAl@ 10023078     libucrt:lcidtoname_downlevel.obj
 0002:00004080       ??_C@_15PCFJPHHO@?$AAe?$AAt@ 10023080     libucrt:lcidtoname_downlevel.obj
 0002:00004088       ??_C@_15HPFPGODN@?$AAl?$AAv@ 10023088     libucrt:lcidtoname_downlevel.obj
 0002:00004090       ??_C@_15NFFGKGLG@?$AAl?$AAt@ 10023090     libucrt:lcidtoname_downlevel.obj
 0002:00004098       ??_C@_15BDAKCCHN@?$AAf?$AAa@ 10023098     libucrt:lcidtoname_downlevel.obj
 0002:000040a0       ??_C@_15NFGIAIAJ@?$AAv?$AAi@ 100230a0     libucrt:lcidtoname_downlevel.obj
 0002:000040a8       ??_C@_15LMKNDMHN@?$AAh?$AAy@ 100230a8     libucrt:lcidtoname_downlevel.obj
 0002:000040b0       ??_C@_15IJBHMCFL@?$AAa?$AAz@ 100230b0     libucrt:lcidtoname_downlevel.obj
 0002:000040b8       ??_C@_15EKOFJABL@?$AAe?$AAu@ 100230b8     libucrt:lcidtoname_downlevel.obj
 0002:000040c0       ??_C@_15BGHADCNK@?$AAm?$AAk@ 100230c0     libucrt:lcidtoname_downlevel.obj
 0002:000040c8       ??_C@_15JDNICKHM@?$AAa?$AAf@ 100230c8     libucrt:lcidtoname_downlevel.obj
 0002:000040d0       ??_C@_15KPJEDBKD@?$AAk?$AAa@ 100230d0     libucrt:lcidtoname_downlevel.obj
 0002:000040d8       ??_C@_15PDNFFFEO@?$AAf?$AAo@ 100230d8     libucrt:lcidtoname_downlevel.obj
 0002:000040e0       ??_C@_15OMLEGLOC@?$AAh?$AAi@ 100230e0     libucrt:lcidtoname_downlevel.obj
 0002:000040e8       ??_C@_15IDNNENKK@?$AAm?$AAs@ 100230e8     libucrt:lcidtoname_downlevel.obj
 0002:000040f0       ??_C@_15MACJNBMH@?$AAk?$AAk@ 100230f0     libucrt:lcidtoname_downlevel.obj
 0002:000040f8       ??_C@_15DKDJEOND@?$AAk?$AAy@ 100230f8     libucrt:lcidtoname_downlevel.obj
 0002:00004100       ??_C@_15DFGDLJBG@?$AAs?$AAw@ 10023100     libucrt:lcidtoname_downlevel.obj
 0002:00004108       ??_C@_15BBFAICNG@?$AAu?$AAz@ 10023108     libucrt:lcidtoname_downlevel.obj
 0002:00004110       ??_C@_15DKNDCGEA@?$AAt?$AAt@ 10023110     libucrt:lcidtoname_downlevel.obj
 0002:00004118       ??_C@_15MGIFMDPL@?$AAp?$AAa@ 10023118     libucrt:lcidtoname_downlevel.obj
 0002:00004120       ??_C@_15HCNDBBA@?$AAg?$AAu@ 10023120     libucrt:lcidtoname_downlevel.obj
 0002:00004128       ??_C@_15FNBEIBON@?$AAt?$AAa@ 10023128     libucrt:lcidtoname_downlevel.obj
 0002:00004130       ??_C@_15NCHGBGLK@?$AAt?$AAe@ 10023130     libucrt:lcidtoname_downlevel.obj
 0002:00004138       ??_C@_15PHPHCBPF@?$AAk?$AAn@ 10023138     libucrt:lcidtoname_downlevel.obj
 0002:00004140       ??_C@_15DLGBCKMP@?$AAm?$AAr@ 10023140     libucrt:lcidtoname_downlevel.obj
 0002:00004148       ??_C@_15EABBLBFF@?$AAs?$AAa@ 10023148     libucrt:lcidtoname_downlevel.obj
 0002:00004150       ??_C@_15CBKOMCOI@?$AAm?$AAn@ 10023150     libucrt:lcidtoname_downlevel.obj
 0002:00004158       ??_C@_15CKDMCJAF@?$AAg?$AAl@ 10023158     libucrt:lcidtoname_downlevel.obj
 0002:00004160       ??_C@_17CNJFBPG@?$AAk?$AAo?$AAk@ 10023160     libucrt:lcidtoname_downlevel.obj
 0002:00004168       ??_C@_17FFBJICPL@?$AAs?$AAy?$AAr@ 10023168     libucrt:lcidtoname_downlevel.obj
 0002:00004170       ??_C@_17KPNDCPAF@?$AAd?$AAi?$AAv@ 10023170     libucrt:lcidtoname_downlevel.obj
 0002:00004178       ??_C@_11LOCGONAA@@         10023178     libucrt:lcidtoname_downlevel.obj
 0002:0000417c       ??_C@_1M@OKAHONE@?$AAa?$AAr?$AA?9?$AAS?$AAA@ 1002317c     libucrt:lcidtoname_downlevel.obj
 0002:00004188       ??_C@_1M@FFFIGIGK@?$AAb?$AAg?$AA?9?$AAB?$AAG@ 10023188     libucrt:lcidtoname_downlevel.obj
 0002:00004194       ??_C@_1M@BJNKEDC@?$AAc?$AAa?$AA?9?$AAE?$AAS@ 10023194     libucrt:lcidtoname_downlevel.obj
 0002:000041a0       ??_C@_1M@IJJHFJHA@?$AAc?$AAs?$AA?9?$AAC?$AAZ@ 100231a0     libucrt:lcidtoname_downlevel.obj
 0002:000041ac       ??_C@_1M@CLPEOBGI@?$AAd?$AAa?$AA?9?$AAD?$AAK@ 100231ac     libucrt:lcidtoname_downlevel.obj
 0002:000041b8       ??_C@_1M@MCMADGCB@?$AAd?$AAe?$AA?9?$AAD?$AAE@ 100231b8     libucrt:lcidtoname_downlevel.obj
 0002:000041c4       ??_C@_1M@OOCKEMAM@?$AAe?$AAl?$AA?9?$AAG?$AAR@ 100231c4     libucrt:lcidtoname_downlevel.obj
 0002:000041d0       ??_C@_1M@DDNJFGID@?$AAf?$AAi?$AA?9?$AAF?$AAI@ 100231d0     libucrt:lcidtoname_downlevel.obj
 0002:000041dc       ??_C@_1M@GLIPPMAC@?$AAf?$AAr?$AA?9?$AAF?$AAR@ 100231dc     libucrt:lcidtoname_downlevel.obj
 0002:000041e8       ??_C@_1M@GFMCHPE@?$AAh?$AAe?$AA?9?$AAI?$AAL@ 100231e8     libucrt:lcidtoname_downlevel.obj
 0002:000041f4       ??_C@_1M@MHLPGNKM@?$AAh?$AAu?$AA?9?$AAH?$AAU@ 100231f4     libucrt:lcidtoname_downlevel.obj
 0002:00004200       ??_C@_1M@LPDDNNPN@?$AAi?$AAs?$AA?9?$AAI?$AAS@ 10023200     libucrt:lcidtoname_downlevel.obj
 0002:0000420c       ??_C@_1M@MADIPODN@?$AAi?$AAt?$AA?9?$AAI?$AAT@ 1002320c     libucrt:lcidtoname_downlevel.obj
 0002:00004218       ??_C@_1M@IHBJJGG@?$AAn?$AAl?$AA?9?$AAN?$AAL@ 10023218     libucrt:lcidtoname_downlevel.obj
 0002:00004224       ??_C@_1M@EANAGDL@?$AAn?$AAb?$AA?9?$AAN?$AAO@ 10023224     libucrt:lcidtoname_downlevel.obj
 0002:00004230       ??_C@_1M@NEIEMEGP@?$AAp?$AAl?$AA?9?$AAP?$AAL@ 10023230     libucrt:lcidtoname_downlevel.obj
 0002:0000423c       ??_C@_1M@BOCFIGEP@?$AAp?$AAt?$AA?9?$AAB?$AAR@ 1002323c     libucrt:lcidtoname_downlevel.obj
 0002:00004248       ??_C@_1M@IMPFOPBG@?$AAr?$AAo?$AA?9?$AAR?$AAO@ 10023248     libucrt:lcidtoname_downlevel.obj
 0002:00004254       ??_C@_1M@IDNNEJMM@?$AAr?$AAu?$AA?9?$AAR?$AAU@ 10023254     libucrt:lcidtoname_downlevel.obj
 0002:00004260       ??_C@_1M@LILEEOGM@?$AAh?$AAr?$AA?9?$AAH?$AAR@ 10023260     libucrt:lcidtoname_downlevel.obj
 0002:0000426c       ??_C@_1M@FKIFEHPB@?$AAs?$AAk?$AA?9?$AAS?$AAK@ 1002326c     libucrt:lcidtoname_downlevel.obj
 0002:00004278       ??_C@_1M@LJMAMNPJ@?$AAs?$AAq?$AA?9?$AAA?$AAL@ 10023278     libucrt:lcidtoname_downlevel.obj
 0002:00004284       ??_C@_1M@GIAKDKJK@?$AAs?$AAv?$AA?9?$AAS?$AAE@ 10023284     libucrt:lcidtoname_downlevel.obj
 0002:00004290       ??_C@_1M@MKJKIKCL@?$AAt?$AAh?$AA?9?$AAT?$AAH@ 10023290     libucrt:lcidtoname_downlevel.obj
 0002:0000429c       ??_C@_1M@MFLCCMPB@?$AAt?$AAr?$AA?9?$AAT?$AAR@ 1002329c     libucrt:lcidtoname_downlevel.obj
 0002:000042a8       ??_C@_1M@OIJHDKJN@?$AAu?$AAr?$AA?9?$AAP?$AAK@ 100232a8     libucrt:lcidtoname_downlevel.obj
 0002:000042b4       ??_C@_1M@LHIPCIEK@?$AAi?$AAd?$AA?9?$AAI?$AAD@ 100232b4     libucrt:lcidtoname_downlevel.obj
 0002:000042c0       ??_C@_1M@MFMOBGI@?$AAu?$AAk?$AA?9?$AAU?$AAA@ 100232c0     libucrt:lcidtoname_downlevel.obj
 0002:000042cc       ??_C@_1M@OBGLJIPL@?$AAb?$AAe?$AA?9?$AAB?$AAY@ 100232cc     libucrt:lcidtoname_downlevel.obj
 0002:000042d8       ??_C@_1M@BCFAJEAD@?$AAs?$AAl?$AA?9?$AAS?$AAI@ 100232d8     libucrt:lcidtoname_downlevel.obj
 0002:000042e4       ??_C@_1M@FKFFEDDN@?$AAe?$AAt?$AA?9?$AAE?$AAE@ 100232e4     libucrt:lcidtoname_downlevel.obj
 0002:000042f0       ??_C@_1M@KGKKAACI@?$AAl?$AAv?$AA?9?$AAL?$AAV@ 100232f0     libucrt:lcidtoname_downlevel.obj
 0002:000042fc       ??_C@_1M@IFGBIJO@?$AAl?$AAt?$AA?9?$AAL?$AAT@ 100232fc     libucrt:lcidtoname_downlevel.obj
 0002:00004308       ??_C@_1M@FGEAHEDM@?$AAf?$AAa?$AA?9?$AAI?$AAR@ 10023308     libucrt:lcidtoname_downlevel.obj
 0002:00004314       ??_C@_1M@KBMAIBFN@?$AAv?$AAi?$AA?9?$AAV?$AAN@ 10023314     libucrt:lcidtoname_downlevel.obj
 0002:00004320       ??_C@_1M@GPCBKDJK@?$AAh?$AAy?$AA?9?$AAA?$AAM@ 10023320     libucrt:lcidtoname_downlevel.obj
 0002:0000432c       ??_C@_1BG@BECMDDJB@?$AAa?$AAz?$AA?9?$AAA?$AAZ?$AA?9?$AAL?$AAa?$AAt?$AAn@ 1002332c     libucrt:lcidtoname_downlevel.obj
 0002:00004344       ??_C@_1M@MAOFCAEA@?$AAe?$AAu?$AA?9?$AAE?$AAS@ 10023344     libucrt:lcidtoname_downlevel.obj
 0002:00004350       ??_C@_1M@IGHABKPI@?$AAm?$AAk?$AA?9?$AAM?$AAK@ 10023350     libucrt:lcidtoname_downlevel.obj
 0002:0000435c       ??_C@_1M@IAIGNEJG@?$AAt?$AAn?$AA?9?$AAZ?$AAA@ 1002335c     libucrt:lcidtoname_downlevel.obj
 0002:00004368       ??_C@_1M@IIJCOJFA@?$AAx?$AAh?$AA?9?$AAZ?$AAA@ 10023368     libucrt:lcidtoname_downlevel.obj
 0002:00004374       ??_C@_1M@LGPJHNJH@?$AAz?$AAu?$AA?9?$AAZ?$AAA@ 10023374     libucrt:lcidtoname_downlevel.obj
 0002:00004380       ??_C@_1M@HOKAOIO@?$AAa?$AAf?$AA?9?$AAZ?$AAA@ 10023380     libucrt:lcidtoname_downlevel.obj
 0002:0000438c       ??_C@_1M@DPCLHLIE@?$AAk?$AAa?$AA?9?$AAG?$AAE@ 1002338c     libucrt:lcidtoname_downlevel.obj
 0002:00004398       ??_C@_1M@BLKMHJBI@?$AAf?$AAo?$AA?9?$AAF?$AAO@ 10023398     libucrt:lcidtoname_downlevel.obj
 0002:000043a4       ??_C@_1M@LGGJAPPB@?$AAh?$AAi?$AA?9?$AAI?$AAN@ 100233a4     libucrt:lcidtoname_downlevel.obj
 0002:000043b0       ??_C@_1M@FIKPIHFE@?$AAm?$AAt?$AA?9?$AAM?$AAT@ 100233b0     libucrt:lcidtoname_downlevel.obj
 0002:000043bc       ??_C@_1M@HEGGPBFA@?$AAs?$AAe?$AA?9?$AAN?$AAO@ 100233bc     libucrt:lcidtoname_downlevel.obj
 0002:000043c8       ??_C@_1M@EIBJEEPA@?$AAm?$AAs?$AA?9?$AAM?$AAY@ 100233c8     libucrt:lcidtoname_downlevel.obj
 0002:000043d4       ??_C@_1M@FHLBGMPP@?$AAk?$AAk?$AA?9?$AAK?$AAZ@ 100233d4     libucrt:lcidtoname_downlevel.obj
 0002:000043e0       ??_C@_1M@NGJJLCGI@?$AAk?$AAy?$AA?9?$AAK?$AAG@ 100233e0     libucrt:lcidtoname_downlevel.obj
 0002:000043ec       ??_C@_1M@GIENNBFC@?$AAs?$AAw?$AA?9?$AAK?$AAE@ 100233ec     libucrt:lcidtoname_downlevel.obj
 0002:000043f8       ??_C@_1BG@NDGMJIMJ@?$AAu?$AAz?$AA?9?$AAU?$AAZ?$AA?9?$AAL?$AAa?$AAt?$AAn@ 100233f8     libucrt:lcidtoname_downlevel.obj
 0002:00004410       ??_C@_1M@IDCCIHBC@?$AAt?$AAt?$AA?9?$AAR?$AAU@ 10023410     libucrt:lcidtoname_downlevel.obj
 0002:0000441c       ??_C@_1M@LOICPMOJ@?$AAb?$AAn?$AA?9?$AAI?$AAN@ 1002341c     libucrt:lcidtoname_downlevel.obj
 0002:00004428       ??_C@_1M@KPKKNEAH@?$AAp?$AAa?$AA?9?$AAI?$AAN@ 10023428     libucrt:lcidtoname_downlevel.obj
 0002:00004434       ??_C@_1M@PJGPPBOG@?$AAg?$AAu?$AA?9?$AAI?$AAN@ 10023434     libucrt:lcidtoname_downlevel.obj
 0002:00004440       ??_C@_1M@KMKMOPHI@?$AAt?$AAa?$AA?9?$AAI?$AAN@ 10023440     libucrt:lcidtoname_downlevel.obj
 0002:0000444c       ??_C@_1M@KFEHEPAC@?$AAt?$AAe?$AA?9?$AAI?$AAN@ 1002344c     libucrt:lcidtoname_downlevel.obj
 0002:00004458       ??_C@_1M@CDCLMGHI@?$AAk?$AAn?$AA?9?$AAI?$AAN@ 10023458     libucrt:lcidtoname_downlevel.obj
 0002:00004464       ??_C@_1M@MIODLDKF@?$AAm?$AAl?$AA?9?$AAI?$AAN@ 10023464     libucrt:lcidtoname_downlevel.obj
 0002:00004470       ??_C@_1M@PBIEACPO@?$AAm?$AAr?$AA?9?$AAI?$AAN@ 10023470     libucrt:lcidtoname_downlevel.obj
 0002:0000447c       ??_C@_1M@NIDEAGPH@?$AAs?$AAa?$AA?9?$AAI?$AAN@ 1002347c     libucrt:lcidtoname_downlevel.obj
 0002:00004488       ??_C@_1M@FHIHCBIO@?$AAm?$AAn?$AA?9?$AAM?$AAN@ 10023488     libucrt:lcidtoname_downlevel.obj
 0002:00004494       ??_C@_1M@JAIJPENP@?$AAc?$AAy?$AA?9?$AAG?$AAB@ 10023494     libucrt:lcidtoname_downlevel.obj
 0002:000044a0       ??_C@_1M@PHGFBEPN@?$AAg?$AAl?$AA?9?$AAE?$AAS@ 100234a0     libucrt:lcidtoname_downlevel.obj
 0002:000044ac       ??_C@_1O@KPIPDNCP@?$AAk?$AAo?$AAk?$AA?9?$AAI?$AAN@ 100234ac     libucrt:lcidtoname_downlevel.obj
 0002:000044bc       ??_C@_1O@KNHJLDJA@?$AAs?$AAy?$AAr?$AA?9?$AAS?$AAY@ 100234bc     libucrt:lcidtoname_downlevel.obj
 0002:000044cc       ??_C@_1O@MKEKBLAH@?$AAd?$AAi?$AAv?$AA?9?$AAM?$AAV@ 100234cc     libucrt:lcidtoname_downlevel.obj
 0002:000044dc       ??_C@_1O@OHDCKDDF@?$AAq?$AAu?$AAz?$AA?9?$AAB?$AAO@ 100234dc     libucrt:lcidtoname_downlevel.obj
 0002:000044ec       ??_C@_1M@LEPJNLFD@?$AAn?$AAs?$AA?9?$AAZ?$AAA@ 100234ec     libucrt:lcidtoname_downlevel.obj
 0002:000044f8       ??_C@_1M@OMLEIIJB@?$AAm?$AAi?$AA?9?$AAN?$AAZ@ 100234f8     libucrt:lcidtoname_downlevel.obj
 0002:00004504       ??_C@_1M@PMPEAILG@?$AAa?$AAr?$AA?9?$AAI?$AAQ@ 10023504     libucrt:lcidtoname_downlevel.obj
 0002:00004510       ??_C@_1M@CNKPNOEE@?$AAd?$AAe?$AA?9?$AAC?$AAH@ 10023510     libucrt:lcidtoname_downlevel.obj
 0002:0000451c       ??_C@_1M@LKMGMLKO@?$AAe?$AAn?$AA?9?$AAG?$AAB@ 1002351c     libucrt:lcidtoname_downlevel.obj
 0002:00004528       ??_C@_1M@PGKJFFGL@?$AAe?$AAs?$AA?9?$AAM?$AAX@ 10023528     libucrt:lcidtoname_downlevel.obj
 0002:00004534       ??_C@_1M@DNNANBDC@?$AAf?$AAr?$AA?9?$AAB?$AAE@ 10023534     libucrt:lcidtoname_downlevel.obj
 0002:00004540       ??_C@_1M@HLGMDFHM@?$AAi?$AAt?$AA?9?$AAC?$AAH@ 10023540     libucrt:lcidtoname_downlevel.obj
 0002:0000454c       ??_C@_1M@CLLBGJH@?$AAn?$AAl?$AA?9?$AAB?$AAE@ 1002354c     libucrt:lcidtoname_downlevel.obj
 0002:00004558       ??_C@_1M@BODBOGLF@?$AAn?$AAn?$AA?9?$AAN?$AAO@ 10023558     libucrt:lcidtoname_downlevel.obj
 0002:00004564       ??_C@_1M@HFFAHKAD@?$AAp?$AAt?$AA?9?$AAP?$AAT@ 10023564     libucrt:lcidtoname_downlevel.obj
 0002:00004570       ??_C@_1BG@LNOAKHIE@?$AAs?$AAr?$AA?9?$AAS?$AAP?$AA?9?$AAL?$AAa?$AAt?$AAn@ 10023570     libucrt:lcidtoname_downlevel.obj
 0002:00004588       ??_C@_1M@HBMHBGAK@?$AAs?$AAv?$AA?9?$AAF?$AAI@ 10023588     libucrt:lcidtoname_downlevel.obj
 0002:00004594       ??_C@_1BG@DGCJGJBE@?$AAa?$AAz?$AA?9?$AAA?$AAZ?$AA?9?$AAC?$AAy?$AAr?$AAl@ 10023594     libucrt:lcidtoname_downlevel.obj
 0002:000045ac       ??_C@_1M@KEJDAAHB@?$AAs?$AAe?$AA?9?$AAS?$AAE@ 100235ac     libucrt:lcidtoname_downlevel.obj
 0002:000045b8       ??_C@_1M@HEIBJJAD@?$AAm?$AAs?$AA?9?$AAB?$AAN@ 100235b8     libucrt:lcidtoname_downlevel.obj
 0002:000045c4       ??_C@_1BG@PBGJMCEM@?$AAu?$AAz?$AA?9?$AAU?$AAZ?$AA?9?$AAC?$AAy?$AAr?$AAl@ 100235c4     libucrt:lcidtoname_downlevel.obj
 0002:000045dc       ??_C@_1O@LAOBCMDF@?$AAq?$AAu?$AAz?$AA?9?$AAE?$AAC@ 100235dc     libucrt:lcidtoname_downlevel.obj
 0002:000045ec       ??_C@_1M@POEEMAIO@?$AAa?$AAr?$AA?9?$AAE?$AAG@ 100235ec     libucrt:lcidtoname_downlevel.obj
 0002:000045f8       ??_C@_1M@EFAKDEDL@?$AAz?$AAh?$AA?9?$AAH?$AAK@ 100235f8     libucrt:lcidtoname_downlevel.obj
 0002:00004604       ??_C@_1M@HKKIJHGI@?$AAd?$AAe?$AA?9?$AAA?$AAT@ 10023604     libucrt:lcidtoname_downlevel.obj
 0002:00004610       ??_C@_1M@KBFBEHJF@?$AAe?$AAn?$AA?9?$AAA?$AAU@ 10023610     libucrt:lcidtoname_downlevel.obj
 0002:0000461c       ??_C@_1M@MNPLFAAH@?$AAe?$AAs?$AA?9?$AAE?$AAS@ 1002361c     libucrt:lcidtoname_downlevel.obj
 0002:00004628       ??_C@_1M@HJOOJFMA@?$AAf?$AAr?$AA?9?$AAC?$AAA@ 10023628     libucrt:lcidtoname_downlevel.obj
 0002:00004634       ??_C@_1BG@JPOFPNAB@?$AAs?$AAr?$AA?9?$AAS?$AAP?$AA?9?$AAC?$AAy?$AAr?$AAl@ 10023634     libucrt:lcidtoname_downlevel.obj
 0002:0000464c       ??_C@_1M@LNFOCMOB@?$AAs?$AAe?$AA?9?$AAF?$AAI@ 1002364c     libucrt:lcidtoname_downlevel.obj
 0002:00004658       ??_C@_1O@MGJBOAMB@?$AAq?$AAu?$AAz?$AA?9?$AAP?$AAE@ 10023658     libucrt:lcidtoname_downlevel.obj
 0002:00004668       ??_C@_1M@GJINLBOK@?$AAa?$AAr?$AA?9?$AAL?$AAY@ 10023668     libucrt:lcidtoname_downlevel.obj
 0002:00004674       ??_C@_1M@GGMNHJNL@?$AAz?$AAh?$AA?9?$AAS?$AAG@ 10023674     libucrt:lcidtoname_downlevel.obj
 0002:00004680       ??_C@_1M@HOIKODND@?$AAd?$AAe?$AA?9?$AAL?$AAU@ 10023680     libucrt:lcidtoname_downlevel.obj
 0002:0000468c       ??_C@_1M@DDOCCGFG@?$AAe?$AAn?$AA?9?$AAC?$AAA@ 1002368c     libucrt:lcidtoname_downlevel.obj
 0002:00004698       ??_C@_1M@BNOEMJLF@?$AAe?$AAs?$AA?9?$AAG?$AAT@ 10023698     libucrt:lcidtoname_downlevel.obj
 0002:000046a4       ??_C@_1M@EOGNKEK@?$AAf?$AAr?$AA?9?$AAC?$AAH@ 100236a4     libucrt:lcidtoname_downlevel.obj
 0002:000046b0       ??_C@_1M@FLIDJFHL@?$AAh?$AAr?$AA?9?$AAB?$AAA@ 100236b0     libucrt:lcidtoname_downlevel.obj
 0002:000046bc       ??_C@_1O@FMCELNAJ@?$AAs?$AAm?$AAj?$AA?9?$AAN?$AAO@ 100236bc     libucrt:lcidtoname_downlevel.obj
 0002:000046cc       ??_C@_1M@JHGLJMGJ@?$AAa?$AAr?$AA?9?$AAD?$AAZ@ 100236cc     libucrt:lcidtoname_downlevel.obj
 0002:000046d8       ??_C@_1M@JKKFDCNP@?$AAz?$AAh?$AA?9?$AAM?$AAO@ 100236d8     libucrt:lcidtoname_downlevel.obj
 0002:000046e4       ??_C@_1M@GEEFALPE@?$AAd?$AAe?$AA?9?$AAL?$AAI@ 100236e4     libucrt:lcidtoname_downlevel.obj
 0002:000046f0       ??_C@_1M@IGEOFBG@?$AAe?$AAn?$AA?9?$AAN?$AAZ@ 100236f0     libucrt:lcidtoname_downlevel.obj
 0002:000046fc       ??_C@_1M@KDBONEHP@?$AAe?$AAs?$AA?9?$AAC?$AAR@ 100236fc     libucrt:lcidtoname_downlevel.obj
 0002:00004708       ??_C@_1M@FHMDOHNN@?$AAf?$AAr?$AA?9?$AAL?$AAU@ 10023708     libucrt:lcidtoname_downlevel.obj
 0002:00004714       ??_C@_1BG@NFKKMAFG@?$AAb?$AAs?$AA?9?$AAB?$AAA?$AA?9?$AAL?$AAa?$AAt?$AAn@ 10023714     libucrt:lcidtoname_downlevel.obj
 0002:0000472c       ??_C@_1O@IMNBEMCI@?$AAs?$AAm?$AAj?$AA?9?$AAS?$AAE@ 1002372c     libucrt:lcidtoname_downlevel.obj
 0002:0000473c       ??_C@_1M@DHHMBNDP@?$AAa?$AAr?$AA?9?$AAM?$AAA@ 1002373c     libucrt:lcidtoname_downlevel.obj
 0002:00004748       ??_C@_1M@BNBLJCGH@?$AAe?$AAn?$AA?9?$AAI?$AAE@ 10023748     libucrt:lcidtoname_downlevel.obj
 0002:00004754       ??_C@_1M@GEPAFMDL@?$AAe?$AAs?$AA?9?$AAP?$AAA@ 10023754     libucrt:lcidtoname_downlevel.obj
 0002:00004760       ??_C@_1M@OJONDMDL@?$AAf?$AAr?$AA?9?$AAM?$AAC@ 10023760     libucrt:lcidtoname_downlevel.obj
 0002:0000476c       ??_C@_1BG@OBCNFJB@?$AAs?$AAr?$AA?9?$AAB?$AAA?$AA?9?$AAL?$AAa?$AAt?$AAn@ 1002376c     libucrt:lcidtoname_downlevel.obj
 0002:00004784       ??_C@_1O@KEMEEGPO@?$AAs?$AAm?$AAa?$AA?9?$AAN?$AAO@ 10023784     libucrt:lcidtoname_downlevel.obj
 0002:00004794       ??_C@_1M@ELMGFODK@?$AAa?$AAr?$AA?9?$AAT?$AAN@ 10023794     libucrt:lcidtoname_downlevel.obj
 0002:000047a0       ??_C@_1M@BHDLHFAF@?$AAe?$AAn?$AA?9?$AAZ?$AAA@ 100237a0     libucrt:lcidtoname_downlevel.obj
 0002:000047ac       ??_C@_1M@BMGIGLIF@?$AAe?$AAs?$AA?9?$AAD?$AAO@ 100237ac     libucrt:lcidtoname_downlevel.obj
 0002:000047b8       ??_C@_1BG@CMBHIPBE@?$AAs?$AAr?$AA?9?$AAB?$AAA?$AA?9?$AAC?$AAy?$AAr?$AAl@ 100237b8     libucrt:lcidtoname_downlevel.obj
 0002:000047d0       ??_C@_1O@HEDBLHNP@?$AAs?$AAm?$AAa?$AA?9?$AAS?$AAE@ 100237d0     libucrt:lcidtoname_downlevel.obj
 0002:000047e0       ??_C@_1M@DAGCADIM@?$AAa?$AAr?$AA?9?$AAO?$AAM@ 100237e0     libucrt:lcidtoname_downlevel.obj
 0002:000047ec       ??_C@_1M@FODLMICG@?$AAe?$AAn?$AA?9?$AAJ?$AAM@ 100237ec     libucrt:lcidtoname_downlevel.obj
 0002:000047f8       ??_C@_1M@DNMLCIHB@?$AAe?$AAs?$AA?9?$AAV?$AAE@ 100237f8     libucrt:lcidtoname_downlevel.obj
 0002:00004804       ??_C@_1O@EOKHMKJK@?$AAs?$AAm?$AAs?$AA?9?$AAF?$AAI@ 10023804     libucrt:lcidtoname_downlevel.obj
 0002:00004814       ??_C@_1M@CAFJMKOF@?$AAa?$AAr?$AA?9?$AAY?$AAE@ 10023814     libucrt:lcidtoname_downlevel.obj
 0002:00004820       ??_C@_1M@CBFHIJLI@?$AAe?$AAn?$AA?9?$AAC?$AAB@ 10023820     libucrt:lcidtoname_downlevel.obj
 0002:0000482c       ??_C@_1M@BGNFLDN@?$AAe?$AAs?$AA?9?$AAC?$AAO@ 1002382c     libucrt:lcidtoname_downlevel.obj
 0002:00004838       ??_C@_1O@JMPHMAMC@?$AAs?$AAm?$AAn?$AA?9?$AAF?$AAI@ 10023838     libucrt:lcidtoname_downlevel.obj
 0002:00004848       ??_C@_1M@JLANABKE@?$AAa?$AAr?$AA?9?$AAS?$AAY@ 10023848     libucrt:lcidtoname_downlevel.obj
 0002:00004854       ??_C@_1M@HPKGCFGN@?$AAe?$AAn?$AA?9?$AAB?$AAZ@ 10023854     libucrt:lcidtoname_downlevel.obj
 0002:00004860       ??_C@_1M@OLJCMLGM@?$AAe?$AAs?$AA?9?$AAP?$AAE@ 10023860     libucrt:lcidtoname_downlevel.obj
 0002:0000486c       ??_C@_1M@MKKGFKLE@?$AAa?$AAr?$AA?9?$AAJ?$AAO@ 1002386c     libucrt:lcidtoname_downlevel.obj
 0002:00004878       ??_C@_1M@EKPGLDNI@?$AAe?$AAn?$AA?9?$AAT?$AAT@ 10023878     libucrt:lcidtoname_downlevel.obj
 0002:00004884       ??_C@_1M@OONGHFHE@?$AAe?$AAs?$AA?9?$AAA?$AAR@ 10023884     libucrt:lcidtoname_downlevel.obj
 0002:00004890       ??_C@_1M@OOJFGBHE@?$AAa?$AAr?$AA?9?$AAL?$AAB@ 10023890     libucrt:lcidtoname_downlevel.obj
 0002:0000489c       ??_C@_1M@GCEJHNEG@?$AAe?$AAn?$AA?9?$AAZ?$AAW@ 1002389c     libucrt:lcidtoname_downlevel.obj
 0002:000048a8       ??_C@_1M@JNOCAHJI@?$AAe?$AAs?$AA?9?$AAE?$AAC@ 100238a8     libucrt:lcidtoname_downlevel.obj
 0002:000048b4       ??_C@_1M@JEFHPGGB@?$AAa?$AAr?$AA?9?$AAK?$AAW@ 100238b4     libucrt:lcidtoname_downlevel.obj
 0002:000048c0       ??_C@_1M@MLKIBJOJ@?$AAe?$AAn?$AA?9?$AAP?$AAH@ 100238c0     libucrt:lcidtoname_downlevel.obj
 0002:000048cc       ??_C@_1M@BDNIPEND@?$AAe?$AAs?$AA?9?$AAC?$AAL@ 100238cc     libucrt:lcidtoname_downlevel.obj
 0002:000048d8       ??_C@_1M@MPNMEKBD@?$AAa?$AAr?$AA?9?$AAA?$AAE@ 100238d8     libucrt:lcidtoname_downlevel.obj
 0002:000048e4       ??_C@_1M@KBJALCPI@?$AAe?$AAs?$AA?9?$AAU?$AAY@ 100238e4     libucrt:lcidtoname_downlevel.obj
 0002:000048f0       ??_C@_1M@LLCCOAGA@?$AAa?$AAr?$AA?9?$AAB?$AAH@ 100238f0     libucrt:lcidtoname_downlevel.obj
 0002:000048fc       ??_C@_1M@PBFNCDEL@?$AAe?$AAs?$AA?9?$AAP?$AAY@ 100238fc     libucrt:lcidtoname_downlevel.obj
 0002:00004908       ??_C@_1M@EDGINPNP@?$AAa?$AAr?$AA?9?$AAQ?$AAA@ 10023908     libucrt:lcidtoname_downlevel.obj
 0002:00004914       ??_C@_1M@MKDBIIJI@?$AAe?$AAs?$AA?9?$AAB?$AAO@ 10023914     libucrt:lcidtoname_downlevel.obj
 0002:00004920       ??_C@_1M@CPKKEBLD@?$AAe?$AAs?$AA?9?$AAS?$AAV@ 10023920     libucrt:lcidtoname_downlevel.obj
 0002:0000492c       ??_C@_1M@NDBGMMJL@?$AAe?$AAs?$AA?9?$AAH?$AAN@ 1002392c     libucrt:lcidtoname_downlevel.obj
 0002:00004938       ??_C@_1M@JIJIBHDP@?$AAe?$AAs?$AA?9?$AAN?$AAI@ 10023938     libucrt:lcidtoname_downlevel.obj
 0002:00004944       ??_C@_1M@CGFMKEEK@?$AAe?$AAs?$AA?9?$AAP?$AAR@ 10023944     libucrt:lcidtoname_downlevel.obj
 0002:00004950       ??_C@_1O@ICJHKIIK@?$AAz?$AAh?$AA?9?$AAC?$AAH?$AAT@ 10023950     libucrt:lcidtoname_downlevel.obj
 0002:00004960       ??_C@_15CLNEJCE@?$AAs?$AAr@ 10023960     libucrt:lcidtoname_downlevel.obj
 0002:00005088       ??_C@_1M@KAHEKEIG@?$AAa?$AAf?$AA?9?$AAz?$AAa@ 10024088     libucrt:lcidtoname_downlevel.obj
 0002:00005094       ??_C@_1M@GIECOABL@?$AAa?$AAr?$AA?9?$AAa?$AAe@ 10024094     libucrt:lcidtoname_downlevel.obj
 0002:000050a0       ??_C@_1M@BMLMEKGI@?$AAa?$AAr?$AA?9?$AAb?$AAh@ 100240a0     libucrt:lcidtoname_downlevel.obj
 0002:000050ac       ??_C@_1M@DAPFDGGB@?$AAa?$AAr?$AA?9?$AAd?$AAz@ 100240ac     libucrt:lcidtoname_downlevel.obj
 0002:000050b8       ??_C@_1M@FJNKGKIG@?$AAa?$AAr?$AA?9?$AAe?$AAg@ 100240b8     libucrt:lcidtoname_downlevel.obj
 0002:000050c4       ??_C@_1M@FLGKKCLO@?$AAa?$AAr?$AA?9?$AAi?$AAq@ 100240c4     libucrt:lcidtoname_downlevel.obj
 0002:000050d0       ??_C@_1M@GNDIPALM@?$AAa?$AAr?$AA?9?$AAj?$AAo@ 100240d0     libucrt:lcidtoname_downlevel.obj
 0002:000050dc       ??_C@_1M@DDMJFMGJ@?$AAa?$AAr?$AA?9?$AAk?$AAw@ 100240dc     libucrt:lcidtoname_downlevel.obj
 0002:000050e8       ??_C@_1M@EJALMLHM@?$AAa?$AAr?$AA?9?$AAl?$AAb@ 100240e8     libucrt:lcidtoname_downlevel.obj
 0002:000050f4       ??_C@_1M@MOBDBLOC@?$AAa?$AAr?$AA?9?$AAl?$AAy@ 100240f4     libucrt:lcidtoname_downlevel.obj
 0002:00005100       ??_C@_1M@JAOCLHDH@?$AAa?$AAr?$AA?9?$AAm?$AAa@ 10024100     libucrt:lcidtoname_downlevel.obj
 0002:0000510c       ??_C@_1M@JHPMKJIE@?$AAa?$AAr?$AA?9?$AAo?$AAm@ 1002410c     libucrt:lcidtoname_downlevel.obj
 0002:00005118       ??_C@_1M@OEPGHFNH@?$AAa?$AAr?$AA?9?$AAq?$AAa@ 10024118     libucrt:lcidtoname_downlevel.obj
 0002:00005124       ??_C@_1M@KJDONENM@?$AAa?$AAr?$AA?9?$AAs?$AAa@ 10024124     libucrt:lcidtoname_downlevel.obj
 0002:00005130       ??_C@_1M@DMJDKLKM@?$AAa?$AAr?$AA?9?$AAs?$AAy@ 10024130     libucrt:lcidtoname_downlevel.obj
 0002:0000513c       ??_C@_1M@OMFIPEDC@?$AAa?$AAr?$AA?9?$AAt?$AAn@ 1002413c     libucrt:lcidtoname_downlevel.obj
 0002:00005148       ??_C@_1M@IHMHGAON@?$AAa?$AAr?$AA?9?$AAy?$AAe@ 10024148     libucrt:lcidtoname_downlevel.obj
 0002:00005154       ??_C@_1BG@KDCPGJGB@?$AAa?$AAz?$AA?9?$AAa?$AAz?$AA?9?$AAc?$AAy?$AAr?$AAl@ 10024154     libucrt:lcidtoname_downlevel.obj
 0002:0000516c       ??_C@_1BG@IBCKDDOE@?$AAa?$AAz?$AA?9?$AAa?$AAz?$AA?9?$AAl?$AAa?$AAt?$AAn@ 1002416c     libucrt:lcidtoname_downlevel.obj
 0002:00005184       ??_C@_1M@EGPFDCPD@?$AAb?$AAe?$AA?9?$AAb?$AAy@ 10024184     libucrt:lcidtoname_downlevel.obj
 0002:00005190       ??_C@_1M@PCMGMCGC@?$AAb?$AAg?$AA?9?$AAb?$AAg@ 10024190     libucrt:lcidtoname_downlevel.obj
 0002:0000519c       ??_C@_1M@BJBMFGOB@?$AAb?$AAn?$AA?9?$AAi?$AAn@ 1002419c     libucrt:lcidtoname_downlevel.obj
 0002:000051a8       ??_C@_1BG@EAKMMACD@?$AAb?$AAs?$AA?9?$AAb?$AAa?$AA?9?$AAl?$AAa?$AAt?$AAn@ 100241a8     libucrt:lcidtoname_downlevel.obj
 0002:000051c0       ??_C@_1M@KGADAODK@?$AAc?$AAa?$AA?9?$AAe?$AAs@ 100241c0     libucrt:lcidtoname_downlevel.obj
 0002:000051cc       ??_C@_1M@COAJPDHI@?$AAc?$AAs?$AA?9?$AAc?$AAz@ 100241cc     libucrt:lcidtoname_downlevel.obj
 0002:000051d8       ??_C@_1M@DHBHFONH@?$AAc?$AAy?$AA?9?$AAg?$AAb@ 100241d8     libucrt:lcidtoname_downlevel.obj
 0002:000051e4       ??_C@_1M@IMGKELGA@?$AAd?$AAa?$AA?9?$AAd?$AAk@ 100241e4     libucrt:lcidtoname_downlevel.obj
 0002:000051f0       ??_C@_1M@NNDGDNGA@?$AAd?$AAe?$AA?9?$AAa?$AAt@ 100241f0     libucrt:lcidtoname_downlevel.obj
 0002:000051fc       ??_C@_1M@IKDBHEEM@?$AAd?$AAe?$AA?9?$AAc?$AAh@ 100241fc     libucrt:lcidtoname_downlevel.obj
 0002:00005208       ??_C@_1M@GFFOJMCJ@?$AAd?$AAe?$AA?9?$AAd?$AAe@ 10024208     libucrt:lcidtoname_downlevel.obj
 0002:00005214       ??_C@_1M@MDNLKBPM@?$AAd?$AAe?$AA?9?$AAl?$AAi@ 10024214     libucrt:lcidtoname_downlevel.obj
 0002:00005220       ??_C@_1M@NJBEEJNL@?$AAd?$AAe?$AA?9?$AAl?$AAu@ 10024220     libucrt:lcidtoname_downlevel.obj
 0002:0000522c       ??_C@_1O@GNNELBAP@?$AAd?$AAi?$AAv?$AA?9?$AAm?$AAv@ 1002422c     libucrt:lcidtoname_downlevel.obj
 0002:0000523c       ??_C@_1M@EJLEOGAE@?$AAe?$AAl?$AA?9?$AAg?$AAr@ 1002423c     libucrt:lcidtoname_downlevel.obj
 0002:00005248       ??_C@_1M@GMPONJN@?$AAe?$AAn?$AA?9?$AAa?$AAu@ 10024248     libucrt:lcidtoname_downlevel.obj
 0002:00005254       ??_C@_1M@NIDIIPGF@?$AAe?$AAn?$AA?9?$AAb?$AAz@ 10024254     libucrt:lcidtoname_downlevel.obj
 0002:00005260       ??_C@_1M@JEHMIMFO@?$AAe?$AAn?$AA?9?$AAc?$AAa@ 10024260     libucrt:lcidtoname_downlevel.obj
 0002:0000526c       ??_C@_1M@IGMJCDLA@?$AAe?$AAn?$AA?9?$AAc?$AAb@ 1002426c     libucrt:lcidtoname_downlevel.obj
 0002:00005278       ??_C@_1M@BNFIGBKG@?$AAe?$AAn?$AA?9?$AAg?$AAb@ 10024278     libucrt:lcidtoname_downlevel.obj
 0002:00005284       ??_C@_1M@LKIFDIGP@?$AAe?$AAn?$AA?9?$AAi?$AAe@ 10024284     libucrt:lcidtoname_downlevel.obj
 0002:00005290       ??_C@_1M@PJKFGCCO@?$AAe?$AAn?$AA?9?$AAj?$AAm@ 10024290     libucrt:lcidtoname_downlevel.obj
 0002:0000529c       ??_C@_1M@KPPKEPBO@?$AAe?$AAn?$AA?9?$AAn?$AAz@ 1002429c     libucrt:lcidtoname_downlevel.obj
 0002:000052a8       ??_C@_1M@GMDGLDOB@?$AAe?$AAn?$AA?9?$AAp?$AAh@ 100242a8     libucrt:lcidtoname_downlevel.obj
 0002:000052b4       ??_C@_1M@ONGIBJNA@?$AAe?$AAn?$AA?9?$AAt?$AAt@ 100242b4     libucrt:lcidtoname_downlevel.obj
 0002:000052c0       ??_C@_1M@LLODPCMM@?$AAe?$AAn?$AA?9?$AAu?$AAs@ 100242c0     libucrt:lcidtoname_downlevel.obj
 0002:000052cc       ??_C@_1M@LAKFNPAN@?$AAe?$AAn?$AA?9?$AAz?$AAa@ 100242cc     libucrt:lcidtoname_downlevel.obj
 0002:000052d8       ??_C@_1M@MFNHNHEO@?$AAe?$AAn?$AA?9?$AAz?$AAw@ 100242d8     libucrt:lcidtoname_downlevel.obj
 0002:000052e4       ??_C@_1M@EJEINPHM@?$AAe?$AAs?$AA?9?$AAa?$AAr@ 100242e4     libucrt:lcidtoname_downlevel.obj
 0002:000052f0       ??_C@_1M@GNKPCCJA@?$AAe?$AAs?$AA?9?$AAb?$AAo@ 100242f0     libucrt:lcidtoname_downlevel.obj
 0002:000052fc       ??_C@_1M@LEEGFONL@?$AAe?$AAs?$AA?9?$AAc?$AAl@ 100242fc     libucrt:lcidtoname_downlevel.obj
 0002:00005308       ??_C@_1M@KGPDPBDF@?$AAe?$AAs?$AA?9?$AAc?$AAo@ 10024308     libucrt:lcidtoname_downlevel.obj
 0002:00005314       ??_C@_1M@EIAHOHH@?$AAe?$AAs?$AA?9?$AAc?$AAr@ 10024314     libucrt:lcidtoname_downlevel.obj
 0002:00005320       ??_C@_1M@LLPGMBIN@?$AAe?$AAs?$AA?9?$AAd?$AAo@ 10024320     libucrt:lcidtoname_downlevel.obj
 0002:0000532c       ??_C@_1M@DKHMKNJA@?$AAe?$AAs?$AA?9?$AAe?$AAc@ 1002432c     libucrt:lcidtoname_downlevel.obj
 0002:00005338       ??_C@_1M@GKGFPKAP@?$AAe?$AAs?$AA?9?$AAe?$AAs@ 10024338     libucrt:lcidtoname_downlevel.obj
 0002:00005344       ??_C@_1M@LKHKGDLN@?$AAe?$AAs?$AA?9?$AAg?$AAt@ 10024344     libucrt:lcidtoname_downlevel.obj
 0002:00005350       ??_C@_1M@HEIIGGJD@?$AAe?$AAs?$AA?9?$AAh?$AAn@ 10024350     libucrt:lcidtoname_downlevel.obj
 0002:0000535c       ??_C@_1M@FBDHPPGD@?$AAe?$AAs?$AA?9?$AAm?$AAx@ 1002435c     libucrt:lcidtoname_downlevel.obj
 0002:00005368       ??_C@_1M@DPAGLNDH@?$AAe?$AAs?$AA?9?$AAn?$AAi@ 10024368     libucrt:lcidtoname_downlevel.obj
 0002:00005374       ??_C@_1M@MDGOPGDD@?$AAe?$AAs?$AA?9?$AAp?$AAa@ 10024374     libucrt:lcidtoname_downlevel.obj
 0002:00005380       ??_C@_1M@EMAMGBGE@?$AAe?$AAs?$AA?9?$AAp?$AAe@ 10024380     libucrt:lcidtoname_downlevel.obj
 0002:0000538c       ??_C@_1M@IBMCAOEC@?$AAe?$AAs?$AA?9?$AAp?$AAr@ 1002438c     libucrt:lcidtoname_downlevel.obj
 0002:00005398       ??_C@_1M@FGMDIJED@?$AAe?$AAs?$AA?9?$AAp?$AAy@ 10024398     libucrt:lcidtoname_downlevel.obj
 0002:000053a4       ??_C@_1M@IIDEOLLL@?$AAe?$AAs?$AA?9?$AAs?$AAv@ 100243a4     libucrt:lcidtoname_downlevel.obj
 0002:000053b0       ??_C@_1M@GAOBIPA@?$AAe?$AAs?$AA?9?$AAu?$AAy@ 100243b0     libucrt:lcidtoname_downlevel.obj
 0002:000053bc       ??_C@_1M@JKFFICHJ@?$AAe?$AAs?$AA?9?$AAv?$AAe@ 100243bc     libucrt:lcidtoname_downlevel.obj
 0002:000053c8       ??_C@_1M@PNMLOJDF@?$AAe?$AAt?$AA?9?$AAe?$AAe@ 100243c8     libucrt:lcidtoname_downlevel.obj
 0002:000053d4       ??_C@_1M@GHHLIKEI@?$AAe?$AAu?$AA?9?$AAe?$AAs@ 100243d4     libucrt:lcidtoname_downlevel.obj
 0002:000053e0       ??_C@_1M@PBNONODE@?$AAf?$AAa?$AA?9?$AAi?$AAr@ 100243e0     libucrt:lcidtoname_downlevel.obj
 0002:000053ec       ??_C@_1M@JEEHPMIL@?$AAf?$AAi?$AA?9?$AAf?$AAi@ 100243ec     libucrt:lcidtoname_downlevel.obj
 0002:000053f8       ??_C@_1M@LMDCNDBA@?$AAf?$AAo?$AA?9?$AAf?$AAo@ 100243f8     libucrt:lcidtoname_downlevel.obj
 0002:00005404       ??_C@_1M@JKEOHLDK@?$AAf?$AAr?$AA?9?$AAb?$AAe@ 10024404     libucrt:lcidtoname_downlevel.obj
 0002:00005410       ??_C@_1M@NOHADPMI@?$AAf?$AAr?$AA?9?$AAc?$AAa@ 10024410     libucrt:lcidtoname_downlevel.obj
 0002:0000541c       ??_C@_1M@KDHIHAEC@?$AAf?$AAr?$AA?9?$AAc?$AAh@ 1002441c     libucrt:lcidtoname_downlevel.obj
 0002:00005428       ??_C@_1M@MMBBFGAK@?$AAf?$AAr?$AA?9?$AAf?$AAr@ 10024428     libucrt:lcidtoname_downlevel.obj
 0002:00005434       ??_C@_1M@PAFNENNF@?$AAf?$AAr?$AA?9?$AAl?$AAu@ 10024434     libucrt:lcidtoname_downlevel.obj
 0002:00005440       ??_C@_1M@EOHDJGDD@?$AAf?$AAr?$AA?9?$AAm?$AAc@ 10024440     libucrt:lcidtoname_downlevel.obj
 0002:0000544c       ??_C@_1M@FAPLLOPF@?$AAg?$AAl?$AA?9?$AAe?$AAs@ 1002444c     libucrt:lcidtoname_downlevel.obj
 0002:00005458       ??_C@_1M@FOPBFLOO@?$AAg?$AAu?$AA?9?$AAi?$AAn@ 10024458     libucrt:lcidtoname_downlevel.obj
 0002:00005464       ??_C@_1M@KBMCINPM@?$AAh?$AAe?$AA?9?$AAi?$AAl@ 10024464     libucrt:lcidtoname_downlevel.obj
 0002:00005470       ??_C@_1M@BBPHKFPJ@?$AAh?$AAi?$AA?9?$AAi?$AAn@ 10024470     libucrt:lcidtoname_downlevel.obj
 0002:0000547c       ??_C@_1M@PMBNDPHD@?$AAh?$AAr?$AA?9?$AAb?$AAa@ 1002447c     libucrt:lcidtoname_downlevel.obj
 0002:00005488       ??_C@_1M@BPCKOEGE@?$AAh?$AAr?$AA?9?$AAh?$AAr@ 10024488     libucrt:lcidtoname_downlevel.obj
 0002:00005494       ??_C@_1M@GACBMHKE@?$AAh?$AAu?$AA?9?$AAh?$AAu@ 10024494     libucrt:lcidtoname_downlevel.obj
 0002:000054a0       ??_C@_1M@MILPAJJC@?$AAh?$AAy?$AA?9?$AAa?$AAm@ 100244a0     libucrt:lcidtoname_downlevel.obj
 0002:000054ac       ??_C@_1M@BABBICEC@?$AAi?$AAd?$AA?9?$AAi?$AAd@ 100244ac     libucrt:lcidtoname_downlevel.obj
 0002:000054b8       ??_C@_1M@BIKNHHPF@?$AAi?$AAs?$AA?9?$AAi?$AAs@ 100244b8     libucrt:lcidtoname_downlevel.obj
 0002:000054c4       ??_C@_1M@NMPCJPHE@?$AAi?$AAt?$AA?9?$AAc?$AAh@ 100244c4     libucrt:lcidtoname_downlevel.obj
 0002:000054d0       ??_C@_1M@GHKGFEDF@?$AAi?$AAt?$AA?9?$AAi?$AAt@ 100244d0     libucrt:lcidtoname_downlevel.obj
 0002:000054dc       ??_C@_1M@NIEJCJJA@?$AAj?$AAa?$AA?9?$AAj?$AAp@ 100244dc     libucrt:lcidtoname_downlevel.obj
 0002:000054e8       ??_C@_1M@JILFNBIM@?$AAk?$AAa?$AA?9?$AAg?$AAe@ 100244e8     libucrt:lcidtoname_downlevel.obj
 0002:000054f4       ??_C@_1M@PACPMGPH@?$AAk?$AAk?$AA?9?$AAk?$AAz@ 100244f4     libucrt:lcidtoname_downlevel.obj
 0002:00005500       ??_C@_1M@IELFGMHA@?$AAk?$AAn?$AA?9?$AAi?$AAn@ 10024500     libucrt:lcidtoname_downlevel.obj
 0002:0000550c       ??_C@_1O@IBBJHCH@?$AAk?$AAo?$AAk?$AA?9?$AAi?$AAn@ 1002450c     libucrt:lcidtoname_downlevel.obj
 0002:0000551c       ??_C@_1M@DMHAEOGC@?$AAk?$AAo?$AA?9?$AAk?$AAr@ 1002451c     libucrt:lcidtoname_downlevel.obj
 0002:00005528       ??_C@_1M@HBAHBIGA@?$AAk?$AAy?$AA?9?$AAk?$AAg@ 10024528     libucrt:lcidtoname_downlevel.obj
 0002:00005534       ??_C@_1M@KPMILCJG@?$AAl?$AAt?$AA?9?$AAl?$AAt@ 10024534     libucrt:lcidtoname_downlevel.obj
 0002:00005540       ??_C@_1M@BDEKKCA@?$AAl?$AAv?$AA?9?$AAl?$AAv@ 10024540     libucrt:lcidtoname_downlevel.obj
 0002:0000554c       ??_C@_1M@ELCKCCJJ@?$AAm?$AAi?$AA?9?$AAn?$AAz@ 1002454c     libucrt:lcidtoname_downlevel.obj
 0002:00005558       ??_C@_1M@CBOOLAPA@?$AAm?$AAk?$AA?9?$AAm?$AAk@ 10024558     libucrt:lcidtoname_downlevel.obj
 0002:00005564       ??_C@_1M@GPHNBJKN@?$AAm?$AAl?$AA?9?$AAi?$AAn@ 10024564     libucrt:lcidtoname_downlevel.obj
 0002:00005570       ??_C@_1M@PABJILIG@?$AAm?$AAn?$AA?9?$AAm?$AAn@ 10024570     libucrt:lcidtoname_downlevel.obj
 0002:0000557c       ??_C@_1M@FGBKKIPG@?$AAm?$AAr?$AA?9?$AAi?$AAn@ 1002457c     libucrt:lcidtoname_downlevel.obj
 0002:00005588       ??_C@_1M@NDBPDDAL@?$AAm?$AAs?$AA?9?$AAb?$AAn@ 10024588     libucrt:lcidtoname_downlevel.obj
 0002:00005594       ??_C@_1M@OPIHOOPI@?$AAm?$AAs?$AA?9?$AAm?$AAy@ 10024594     libucrt:lcidtoname_downlevel.obj
 0002:000055a0       ??_C@_1M@PPDBCNFM@?$AAm?$AAt?$AA?9?$AAm?$AAt@ 100245a0     libucrt:lcidtoname_downlevel.obj
 0002:000055ac       ??_C@_1M@KDJDKMDD@?$AAn?$AAb?$AA?9?$AAn?$AAo@ 100245ac     libucrt:lcidtoname_downlevel.obj
 0002:000055b8       ??_C@_1M@KFCFLMJP@?$AAn?$AAl?$AA?9?$AAb?$AAe@ 100245b8     libucrt:lcidtoname_downlevel.obj
 0002:000055c4       ??_C@_1M@KPOPDDGO@?$AAn?$AAl?$AA?9?$AAn?$AAl@ 100245c4     libucrt:lcidtoname_downlevel.obj
 0002:000055d0       ??_C@_1M@LJKPEMLN@?$AAn?$AAn?$AA?9?$AAn?$AAo@ 100245d0     libucrt:lcidtoname_downlevel.obj
 0002:000055dc       ??_C@_1M@BDGHHBFL@?$AAn?$AAs?$AA?9?$AAz?$AAa@ 100245dc     libucrt:lcidtoname_downlevel.obj
 0002:000055e8       ??_C@_1M@IDEHOAP@?$AAp?$AAa?$AA?9?$AAi?$AAn@ 100245e8     libucrt:lcidtoname_downlevel.obj
 0002:000055f4       ??_C@_1M@HDBKGOGH@?$AAp?$AAl?$AA?9?$AAp?$AAl@ 100245f4     libucrt:lcidtoname_downlevel.obj
 0002:00005600       ??_C@_1M@LJLLCMEH@?$AAp?$AAt?$AA?9?$AAb?$AAr@ 10024600     libucrt:lcidtoname_downlevel.obj
 0002:0000560c       ??_C@_1M@NCMONAAL@?$AAp?$AAt?$AA?9?$AAp?$AAt@ 1002460c     libucrt:lcidtoname_downlevel.obj
 0002:00005618       ??_C@_1O@EAKMAJDN@?$AAq?$AAu?$AAz?$AA?9?$AAb?$AAo@ 10024618     libucrt:lcidtoname_downlevel.obj
 0002:00005628       ??_C@_1O@BHHPIGDN@?$AAq?$AAu?$AAz?$AA?9?$AAe?$AAc@ 10024628     libucrt:lcidtoname_downlevel.obj
 0002:00005638       ??_C@_1O@GBAPEKMJ@?$AAq?$AAu?$AAz?$AA?9?$AAp?$AAe@ 10024638     libucrt:lcidtoname_downlevel.obj
 0002:00005648       ??_C@_1M@CLGLEFBO@?$AAr?$AAo?$AA?9?$AAr?$AAo@ 10024648     libucrt:lcidtoname_downlevel.obj
 0002:00005654       ??_C@_1M@CEEDODME@?$AAr?$AAu?$AA?9?$AAr?$AAu@ 10024654     libucrt:lcidtoname_downlevel.obj
 0002:00005660       ??_C@_1M@HPKKKMPP@?$AAs?$AAa?$AA?9?$AAi?$AAn@ 10024660     libucrt:lcidtoname_downlevel.obj
 0002:0000566c       ??_C@_1M@BKMAIGOJ@?$AAs?$AAe?$AA?9?$AAf?$AAi@ 1002466c     libucrt:lcidtoname_downlevel.obj
 0002:00005678       ??_C@_1M@NDPIFLFI@?$AAs?$AAe?$AA?9?$AAn?$AAo@ 10024678     libucrt:lcidtoname_downlevel.obj
 0002:00005684       ??_C@_1M@DANKKHJ@?$AAs?$AAe?$AA?9?$AAs?$AAe@ 10024684     libucrt:lcidtoname_downlevel.obj
 0002:00005690       ??_C@_1M@PNBLONPJ@?$AAs?$AAk?$AA?9?$AAs?$AAk@ 10024690     libucrt:lcidtoname_downlevel.obj
 0002:0000569c       ??_C@_1M@LFMODOAL@?$AAs?$AAl?$AA?9?$AAs?$AAi@ 1002469c     libucrt:lcidtoname_downlevel.obj
 0002:000056a8       ??_C@_1O@DFKOMPG@?$AAs?$AAm?$AAa?$AA?9?$AAn?$AAo@ 100246a8     libucrt:lcidtoname_downlevel.obj
 0002:000056b8       ??_C@_1O@NDKPBNNH@?$AAs?$AAm?$AAa?$AA?9?$AAs?$AAe@ 100246b8     libucrt:lcidtoname_downlevel.obj
 0002:000056c8       ??_C@_1O@PLLKBHAB@?$AAs?$AAm?$AAj?$AA?9?$AAn?$AAo@ 100246c8     libucrt:lcidtoname_downlevel.obj
 0002:000056d8       ??_C@_1O@CLEPOGCA@?$AAs?$AAm?$AAj?$AA?9?$AAs?$AAe@ 100246d8     libucrt:lcidtoname_downlevel.obj
 0002:000056e8       ??_C@_1O@DLGJGKMK@?$AAs?$AAm?$AAn?$AA?9?$AAf?$AAi@ 100246e8     libucrt:lcidtoname_downlevel.obj
 0002:000056f8       ??_C@_1O@OJDJGAJC@?$AAs?$AAm?$AAs?$AA?9?$AAf?$AAi@ 100246f8     libucrt:lcidtoname_downlevel.obj
 0002:00005708       ??_C@_1M@BOFOGHPB@?$AAs?$AAq?$AA?9?$AAa?$AAl@ 10024708     libucrt:lcidtoname_downlevel.obj
 0002:00005714       ??_C@_1BG@LJBBIPGB@?$AAs?$AAr?$AA?9?$AAb?$AAa?$AA?9?$AAc?$AAy?$AAr?$AAl@ 10024714     libucrt:lcidtoname_downlevel.obj
 0002:0000572c       ??_C@_1BG@JLBENFOE@?$AAs?$AAr?$AA?9?$AAb?$AAa?$AA?9?$AAl?$AAa?$AAt?$AAn@ 1002472c     libucrt:lcidtoname_downlevel.obj
 0002:00005744       ??_C@_1BG@KODPNHE@?$AAs?$AAr?$AA?9?$AAs?$AAp?$AA?9?$AAc?$AAy?$AAr?$AAl@ 10024744     libucrt:lcidtoname_downlevel.obj
 0002:0000575c       ??_C@_1BG@CIOGKHPB@?$AAs?$AAr?$AA?9?$AAs?$AAp?$AA?9?$AAl?$AAa?$AAt?$AAn@ 1002475c     libucrt:lcidtoname_downlevel.obj
 0002:00005774       ??_C@_1M@NGFJLMAC@?$AAs?$AAv?$AA?9?$AAf?$AAi@ 10024774     libucrt:lcidtoname_downlevel.obj
 0002:00005780       ??_C@_1M@MPJEJAJC@?$AAs?$AAv?$AA?9?$AAs?$AAe@ 10024780     libucrt:lcidtoname_downlevel.obj
 0002:0000578c       ??_C@_1M@MPNDHLFK@?$AAs?$AAw?$AA?9?$AAk?$AAe@ 1002478c     libucrt:lcidtoname_downlevel.obj
 0002:00005798       ??_C@_1O@KOHBJJI@?$AAs?$AAy?$AAr?$AA?9?$AAs?$AAy@ 10024798     libucrt:lcidtoname_downlevel.obj
 0002:000057a8       ??_C@_1M@LDCEFHA@?$AAt?$AAa?$AA?9?$AAi?$AAn@ 100247a8     libucrt:lcidtoname_downlevel.obj
 0002:000057b4       ??_C@_1M@CNJOFAK@?$AAt?$AAe?$AA?9?$AAi?$AAn@ 100247b4     libucrt:lcidtoname_downlevel.obj
 0002:000057c0       ??_C@_1M@GNAECACD@?$AAt?$AAh?$AA?9?$AAt?$AAh@ 100247c0     libucrt:lcidtoname_downlevel.obj
 0002:000057cc       ??_C@_1M@CHBIHOJO@?$AAt?$AAn?$AA?9?$AAz?$AAa@ 100247cc     libucrt:lcidtoname_downlevel.obj
 0002:000057d8       ??_C@_1M@GCCMIGPJ@?$AAt?$AAr?$AA?9?$AAt?$AAr@ 100247d8     libucrt:lcidtoname_downlevel.obj
 0002:000057e4       ??_C@_1M@CELMCNBK@?$AAt?$AAt?$AA?9?$AAr?$AAu@ 100247e4     libucrt:lcidtoname_downlevel.obj
 0002:000057f0       ??_C@_1M@KLMCELGA@?$AAu?$AAk?$AA?9?$AAu?$AAa@ 100247f0     libucrt:lcidtoname_downlevel.obj
 0002:000057fc       ??_C@_1M@EPAJJAJF@?$AAu?$AAr?$AA?9?$AAp?$AAk@ 100247fc     libucrt:lcidtoname_downlevel.obj
 0002:00005808       ??_C@_1BG@GEGPMCDJ@?$AAu?$AAz?$AA?9?$AAu?$AAz?$AA?9?$AAc?$AAy?$AAr?$AAl@ 10024808     libucrt:lcidtoname_downlevel.obj
 0002:00005820       ??_C@_1BG@EGGKJILM@?$AAu?$AAz?$AA?9?$AAu?$AAz?$AA?9?$AAl?$AAa?$AAt?$AAn@ 10024820     libucrt:lcidtoname_downlevel.obj
 0002:00005838       ??_C@_1M@GFOCLFF@?$AAv?$AAi?$AA?9?$AAv?$AAn@ 10024838     libucrt:lcidtoname_downlevel.obj
 0002:00005844       ??_C@_1M@CPAMEDFI@?$AAx?$AAh?$AA?9?$AAz?$AAa@ 10024844     libucrt:lcidtoname_downlevel.obj
 0002:00005850       ??_C@_1O@EBKIFIGN@?$AAz?$AAh?$AA?9?$AAc?$AAh?$AAs@ 10024850     libucrt:lcidtoname_downlevel.obj
 0002:00005860       ??_C@_1O@NMHPGANE@?$AAz?$AAh?$AA?9?$AAc?$AAh?$AAt@ 10024860     libucrt:lcidtoname_downlevel.obj
 0002:00005870       ??_C@_1M@LPINJOMC@?$AAz?$AAh?$AA?9?$AAc?$AAn@ 10024870     libucrt:lcidtoname_downlevel.obj
 0002:0000587c       ??_C@_1M@OCJEJODD@?$AAz?$AAh?$AA?9?$AAh?$AAk@ 1002487c     libucrt:lcidtoname_downlevel.obj
 0002:00005888       ??_C@_1M@DNDLJINH@?$AAz?$AAh?$AA?9?$AAm?$AAo@ 10024888     libucrt:lcidtoname_downlevel.obj
 0002:00005894       ??_C@_1M@MBFDNDND@?$AAz?$AAh?$AA?9?$AAs?$AAg@ 10024894     libucrt:lcidtoname_downlevel.obj
 0002:000058a0       ??_C@_1M@IMEPLEPE@?$AAz?$AAh?$AA?9?$AAt?$AAw@ 100248a0     libucrt:lcidtoname_downlevel.obj
 0002:000058ac       ??_C@_1M@BBGHNHJP@?$AAz?$AAu?$AA?9?$AAz?$AAa@ 100248ac     libucrt:lcidtoname_downlevel.obj
 0002:00005a20       __infinity                 10024a20     libucrt:87tran.obj
 0002:00005a2a       __minfinity                10024a2a     libucrt:87tran.obj
 0002:00005a34       __logemax                  10024a34     libucrt:87tran.obj
 0002:00005a5a       __OP_EXPjmptab             10024a5a     libucrt:87tran.obj
 0002:00005a80       __indefinite               10024a80     libucrt:87disp.obj
 0002:00005a8a       __piby2                    10024a8a     libucrt:87disp.obj
 0002:00005a94       __piby4                    10024a94     libucrt:87disp.obj
 0002:00005ac8       __DEFAULT_CW_in_mem        10024ac8     libucrt:common.obj
 0002:00005aca       __pi_by_2_to_61            10024aca     libucrt:common.obj
 0002:00005b04       ??_C@_03MGHMBJCF@log@      10024b04     libucrt:libm_error.obj
 0002:00005b08       ??_C@_05HGHHAHAP@log10@    10024b08     libucrt:libm_error.obj
 0002:00005b10       ??_C@_03KHJOGHMM@exp@      10024b10     libucrt:libm_error.obj
 0002:00005b14       ??_C@_03JGHBODFD@pow@      10024b14     libucrt:libm_error.obj
 0002:00005b18       ??_C@_04FIHNOPOL@asin@     10024b18     libucrt:libm_error.obj
 0002:00005b20       ??_C@_04PDIFKINK@acos@     10024b20     libucrt:libm_error.obj
 0002:00005b28       ??_C@_04EIAKFFMI@sqrt@     10024b28     libucrt:libm_error.obj
 0002:00005b30       __real@3ff0000000000000    10024b30     libucrt:libm_error.obj
 0002:00005b38       ??_C@_1BA@BALFACEM@?$AAC?$AAO?$AAN?$AAO?$AAU?$AAT?$AA$@ 10024b38     libucrt:initcon.obj
 0002:00005b60       ___acrt_log10_table_t      10024b60     libucrt:log10_tables.obj
 0002:00005f70       ___acrt_log10_table_cb     10024f70     libucrt:log10_tables.obj
 0002:00006380       __real@3fe0000000000000    10025380     libucrt:powhlp.obj
 0002:00006470       ??_C@_04COOMCNPB@sinh@     10025470     libucrt:fpexcept.obj
 0002:00006478       ??_C@_04HPJJNFIM@cosh@     10025478     libucrt:fpexcept.obj
 0002:00006480       ??_C@_04FJHINJAO@tanh@     10025480     libucrt:fpexcept.obj
 0002:00006488       ??_C@_04MLLJIGOK@atan@     10025488     libucrt:fpexcept.obj
 0002:00006490       ??_C@_05KNGEOGJB@atan2@    10025490     libucrt:fpexcept.obj
 0002:00006498       ??_C@_03BLEJJJBH@sin@      10025498     libucrt:fpexcept.obj
 0002:0000649c       ??_C@_03LALBNOCG@cos@      1002549c     libucrt:fpexcept.obj
 0002:000064a0       ??_C@_03IIINPABG@tan@      100254a0     libucrt:fpexcept.obj
 0002:000064a4       ??_C@_04GFPJNGEK@ceil@     100254a4     libucrt:fpexcept.obj
 0002:000064ac       ??_C@_05PBJFFIGL@floor@    100254ac     libucrt:fpexcept.obj
 0002:000064b4       ??_C@_04ODHECPBC@fabs@     100254b4     libucrt:fpexcept.obj
 0002:000064bc       ??_C@_04EHEDPDJG@modf@     100254bc     libucrt:fpexcept.obj
 0002:000064c4       ??_C@_05CEJMAHNP@ldexp@    100254c4     libucrt:fpexcept.obj
 0002:000064cc       ??_C@_05KBKMEMPO@_cabs@    100254cc     libucrt:fpexcept.obj
 0002:000064d4       ??_C@_06MEIMCGCF@_hypot@   100254d4     libucrt:fpexcept.obj
 0002:000064dc       ??_C@_04KEPJIHGP@fmod@     100254dc     libucrt:fpexcept.obj
 0002:000064e4       ??_C@_05GKKHEGJL@frexp@    100254e4     libucrt:fpexcept.obj
 0002:000064ec       ??_C@_03MJLDFKDL@_y0@      100254ec     libucrt:fpexcept.obj
 0002:000064f0       ??_C@_03NAKIGLHK@_y1@      100254f0     libucrt:fpexcept.obj
 0002:000064f4       ??_C@_03ONILCKOB@_yn@      100254f4     libucrt:fpexcept.obj
 0002:000064f8       ??_C@_05JGDBENOH@_logb@    100254f8     libucrt:fpexcept.obj
 0002:00006500       ??_C@_0L@KDOEJCKC@_nextafter@ 10025500     libucrt:fpexcept.obj
 0002:00006510       __d_inf                    10025510     libucrt:util.obj
 0002:00006518       __d_max                    10025518     libucrt:util.obj
 0002:00006520       __d_mzero                  10025520     libucrt:util.obj
 0002:00006528       ??_C@_1BK@DBDEIDLH@?$AAK?$AAE?$AAR?$AAN?$AAE?$AAL?$AA3?$AA2?$AA?4?$AAD?$AAL?$AAL@ 10025528     DelayImp:delayhlp.obj
 0002:00006544       ??_C@_0BI@OMNLIJDB@AcquireSRWLockExclusive@ 10025544     DelayImp:delayhlp.obj
 0002:0000655c       ??_C@_0BI@HMIEPCNJ@ReleaseSRWLockExclusive@ 1002555c     DelayImp:delayhlp.obj
 0002:00006574       ___pfnDliFailureHook2      10025574     DelayImp:delayhk1.obj
 0002:00006590       __load_config_used         10025590     LIBCMT:loadcfg.obj
 0002:0000664c       ??_C@_0BC@BDKFLDHL@unknown?5exception@ 1002564c     serialport.obj
 0002:00006660       ??_C@_0BF@KINCDENJ@bad?5array?5new?5length@ 10025660     serialport.obj
 0002:00006678       ??_C@_0BA@JFNIOLAK@string?5too?5long@ 10025678     serialport.obj
 0002:00006688       ??_C@_1MO@PJIHLNBL@?$AAD?$AA?3?$AA?2?$AAT?$AAo?$AAo?$AAl?$AAs?$AA?2?$AAa?$AAr?$AAd?$AAu?$AAb?$AAl@ 10025688     serialport.obj
 0002:00006758       ??_C@_1FK@CBGIJHDF@?$AAv?$AAa?$AAl?$AAu?$AAe?$AA?4?$AAs?$AAi?$AAz?$AAe?$AA?$CI?$AA?$CJ?$AA?5?$AA?$DM?$AA?$DN@ 10025758     serialport.obj
 0002:000067b8       ??_C@_1KC@CGMLMDKF@?$AAD?$AA?3?$AA?2?$AAT?$AAo?$AAo?$AAl?$AAs?$AA?2?$AAa?$AAr?$AAd?$AAu?$AAb?$AAl@ 100257b8     serialport.obj
 0002:0000685c       ??_C@_1BO@OPFMAOCA@?$AAl?$AAe?$AAn?$AA?5?$AA?$DM?$AA?$DN?$AA?5?$AAI?$AAN?$AAT?$AA_?$AAM?$AAA?$AAX@ 1002585c     serialport.obj
 0002:0000687c       ??_C@_1BE@CKDJNAPC@?$AAs?$AAt?$AAr?$AA_?$AA?5?$AA?$CB?$AA?$DN?$AA?5?$AA0@ 1002587c     serialport.obj
 0002:00006890       ??_C@_0BK@GMOLLJBN@node?9serialport?3OpenBaton@ 10025890     serialport.obj
 0002:000068ac       ??_C@_0CH@MGGKFFBK@node?9serialport?3ConnectionOptio@ 100258ac     serialport.obj
 0002:000068d4       ??_C@_0BJ@GAIAOPLP@node?9serialport?3SetBaton@ 100258d4     serialport.obj
 0002:000068f0       ??_C@_0BJ@JBKMPMMC@node?9serialport?3GetBaton@ 100258f0     serialport.obj
 0002:0000690c       ??_C@_0CB@NDEIAHOF@node?9serialport?3GetBaudRateBato@ 1002590c     serialport.obj
 0002:00006930       ??_C@_0BK@DHPGNEJO@node?9serialport?3VoidBaton@ 10025930     serialport.obj
 0002:0000694c       ??_C@_0CA@PHEBDBMF@First?5argument?5must?5be?5a?5string@ 1002594c     serialport.obj
 0002:0000696c       ??_C@_0CC@DOLIGLGO@Second?5argument?5must?5be?5an?5obje@ 1002596c     serialport.obj
 0002:00006990       ??_C@_0CC@KNCIJJMF@Third?5argument?5must?5be?5a?5functi@ 10025990     serialport.obj
 0002:000069b4       ??_C@_02DKCKIIND@?$CFs@    100259b4     serialport.obj
 0002:000069b8       ??_C@_08NACMADDF@baudRate@ 100259b8     serialport.obj
 0002:000069c4       ??_C@_08OMEAOKAC@dataBits@ 100259c4     serialport.obj
 0002:000069d0       ??_C@_06CFGKCFEA@parity@   100259d0     serialport.obj
 0002:000069d8       ??_C@_08LNOJODPP@stopBits@ 100259d8     serialport.obj
 0002:000069e4       ??_C@_06EJNMIGBP@rtscts@   100259e4     serialport.obj
 0002:000069ec       ??_C@_03MIMFGCKE@xon@      100259ec     serialport.obj
 0002:000069f0       ??_C@_04OMMHDPAK@xoff@     100259f0     serialport.obj
 0002:000069f8       ??_C@_04MPFBBHBP@xany@     100259f8     serialport.obj
 0002:00006a00       ??_C@_05HDEOENJK@hupcl@    10025a00     serialport.obj
 0002:00006a08       ??_C@_04MKMCLCOO@lock@     10025a08     serialport.obj
 0002:00006a10       ??_C@_0BO@BHDHAAIC@First?5argument?5must?5be?5an?5int@ 10025a10     serialport.obj
 0002:00006a30       ??_C@_0CJ@DKEFGEGN@?$CCbaudRate?$CC?5must?5be?5set?5on?5optio@ 10025a30     serialport.obj
 0002:00006a5c       ??_C@_0CD@FDCLPLBL@Second?5argument?5must?5be?5a?5funct@ 10025a5c     serialport.obj
 0002:00006a80       ??_C@_03JOOIBBDJ@brk@      10025a80     serialport.obj
 0002:00006a84       ??_C@_03EIGHKCEN@rts@      10025a84     serialport.obj
 0002:00006a88       ??_C@_03KAMCJCLH@cts@      10025a88     serialport.obj
 0002:00006a8c       ??_C@_03CEAOJLEP@dtr@      10025a8c     serialport.obj
 0002:00006a90       ??_C@_03CBEBINMK@dsr@      10025a90     serialport.obj
 0002:00006a94       ??_C@_0L@IHJPKLOC@lowLatency@ 10025a94     serialport.obj
 0002:00006aa0       ??_C@_03CBPPJLGN@dcd@      10025aa0     serialport.obj
 0002:00006aa4       ??_C@_04CGFJFPFD@none@     10025aa4     serialport.obj
 0002:00006aac       ??_C@_04JDDJEAHN@even@     10025aac     serialport.obj
 0002:00006ab4       ??_C@_04KJJCFCK@mark@      10025ab4     serialport.obj
 0002:00006abc       ??_C@_03PDLBAKOJ@odd@      10025abc     serialport.obj
 0002:00006ac0       ??_C@_05OLNILLAB@space@    10025ac0     serialport.obj
 0002:00006ac8       ??_C@_03KCHOJKKI@set@      10025ac8     serialport.obj
 0002:00006acc       ??_C@_03HNAFFKGA@get@      10025acc     serialport.obj
 0002:00006ad0       ??_C@_0M@ENOKMJEI@getBaudRate@ 10025ad0     serialport.obj
 0002:00006adc       ??_C@_04PMOCAHAA@open@     10025adc     serialport.obj
 0002:00006ae4       ??_C@_06HDLLMMEJ@update@   10025ae4     serialport.obj
 0002:00006aec       ??_C@_05LBOHBHFK@close@    10025aec     serialport.obj
 0002:00006af4       ??_C@_05GLCAEPFP@flush@    10025af4     serialport.obj
 0002:00006afc       ??_C@_05GBKIIGFP@drain@    10025afc     serialport.obj
 0002:00006b04       ??_C@_05NGFEDHGN@write@    10025b04     serialport.obj
 0002:00006b0c       ??_C@_04POLDLDMI@read@     10025b0c     serialport.obj
 0002:00006b14       ??_C@_04DONFEANM@list@     10025b14     serialport.obj
 0002:00006b20       ??_C@_0GP@GKLAMCPF@D?3?2Tools?2ardublockly?9dev?2ardubl@ 10025b20     serialport.obj
 0002:00006b90       ??_C@_0L@BMBGKDA@serialport@ 10025b90     serialport.obj
 0002:00006b9c       ??_7exception@stdext@@6B@  10025b9c     serialport.obj
 0002:00006ba8       ??_7bad_alloc@stdext@@6B@  10025ba8     serialport.obj
 0002:00006bb8       ___pfnDliNotifyHook2       10025bb8     win_delay_load_hook.obj
 0002:00006bbc       ??_7bad_array_new_length@stdext@@6B@ 10025bbc     serialport.obj
 0002:00006bc8       ??_C@_0BL@CGGDDINM@node?9serialport?3WriteBaton@ 10025bc8     serialport_win.obj
 0002:00006be4       ??_C@_0BK@HINGOFMP@node?9serialport?3ReadBaton@ 10025be4     serialport_win.obj
 0002:00006c00       ??_C@_0BK@POMFANBI@node?9serialport?3ListBaton@ 10025c00     serialport_win.obj
 0002:00006c1a       ??_C@_00CNPNBAHC@@         10025c1a     serialport_win.obj
 0002:00006c1c       ??_C@_0BD@BLPNGLIH@?$CFs?3?5File?5not?5found@ 10025c1c     serialport_win.obj
 0002:00006c30       ??_C@_0BD@GPOKPNCK@?$CFs?3?5Invalid?5handle@ 10025c30     serialport_win.obj
 0002:00006c44       ??_C@_0BC@KPJPBKFJ@?$CFs?3?5Access?5denied@ 10025c44     serialport_win.obj
 0002:00006c58       ??_C@_0BG@IKDEGMJ@?$CFs?3?5Operation?5aborted@ 10025c58     serialport_win.obj
 0002:00006c70       ??_C@_0BP@PMCGHKLE@?$CFs?3?5The?5parameter?5is?5incorrect@ 10025c70     serialport_win.obj
 0002:00006c90       ??_C@_0BK@JFNDFHEK@?$CFs?3?5Unknown?5error?5code?5?$CFd@ 10025c90     serialport_win.obj
 0002:00006cac       ??_C@_04GBDIODIA@?2?2?4?2@ 10025cac     serialport_win.obj
 0002:00006cb4       ??_C@_0L@GJHAJNIB@Opening?5?$CFs@ 10025cb4     serialport_win.obj
 0002:00006cc0       ??_C@_0BE@PBLLKEKO@Open?5?$CIGetCommState?$CJ@ 10025cc0     serialport_win.obj
 0002:00006cd4       ??_C@_0BE@IOKFBHNJ@Open?5?$CISetCommState?$CJ@ 10025cd4     serialport_win.obj
 0002:00006ce8       ??_C@_0BH@KCOGJOCP@Open?5?$CISetCommTimeouts?$CJ@ 10025ce8     serialport_win.obj
 0002:00006d00       ??_C@_0BG@MOOPOEIC@Update?5?$CIGetCommState?$CJ@ 10025d00     serialport_win.obj
 0002:00006d18       ??_C@_0BG@LBPBFHPF@Update?5?$CISetCommState?$CJ@ 10025d18     serialport_win.obj
 0002:00006d30       ??_C@_0CK@NCBLKDEH@Setting?5options?5on?5COM?5port?5?$CISe@ 10025d30     serialport_win.obj
 0002:00006d5c       ??_C@_0DK@ENLNMKEH@Getting?5control?5settings?5on?5COM@ 10025d5c     serialport_win.obj
 0002:00006d98       ??_C@_0CB@OIKGHKFK@Getting?5baud?5rate?5?$CIGetCommState@ 10025d98     serialport_win.obj
 0002:00006dbc       ??_C@_0CB@CADFKPNI@Second?5argument?5must?5be?5a?5buffe@ 10025dbc     serialport_win.obj
 0002:00006de0       ??_C@_0CK@BGPOGOML@Writing?5to?5COM?5port?5?$CIGetOverlap@ 10025de0     serialport_win.obj
 0002:00006e0c       ??_C@_0CC@LGPLFMHP@Writing?5to?5COM?5port?5?$CIWriteFileE@ 10025e0c     serialport_win.obj
 0002:00006e30       ??_C@_0BM@MLNOLJIP@First?5argument?5must?5be?5a?5fd@ 10025e30     serialport_win.obj
 0002:00006e4c       ??_C@_0BO@KMONFNJC@Third?5argument?5must?5be?5an?5int@ 10025e4c     serialport_win.obj
 0002:00006e6c       ??_C@_0BP@MKPMNBEE@Fourth?5argument?5must?5be?5an?5int@ 10025e6c     serialport_win.obj
 0002:00006e90       ??_C@_0ED@DHOIOBMO@?8bytesToRead?8?5?$CL?5?8offset?8?5cannot@ 10025e90     serialport_win.obj
 0002:00006ed4       ??_C@_0CC@EDEMHEPP@Fifth?5argument?5must?5be?5a?5functi@ 10025ed4     serialport_win.obj
 0002:00006ef8       ??_C@_0CJ@BCGGPGKC@Reading?5from?5COM?5port?5?$CIReadIOCo@ 10025ef8     serialport_win.obj
 0002:00006f24       ??_C@_0CM@KIDAHMDM@Reading?5from?5COM?5port?5?$CIGetOverl@ 10025f24     serialport_win.obj
 0002:00006f50       ??_C@_0CG@MIFJGGPJ@Setting?5COM?5timeout?5?$CISetCommTim@ 10025f50     serialport_win.obj
 0002:00006f78       ??_C@_0CB@IFPFGDDE@Reading?5from?5COM?5port?5?$CIReadFile@ 10025f78     serialport_win.obj
 0002:00006f9c       ??_C@_0CD@MFKIFI@Reading?5from?5COM?5port?5?$CIReadFile@ 10025f9c     serialport_win.obj
 0002:00006fc0       ??_C@_0N@MDJJJHMB@kernel32?4dll@ 10025fc0     serialport_win.obj
 0002:00006fd0       ??_C@_0L@COJLGOAG@CancelIoEx@ 10025fd0     serialport_win.obj
 0002:00006fdc       ??_C@_0CB@HOPFDBNI@Closing?5connection?5?$CICloseHandle@ 10025fdc     serialport_win.obj
 0002:00007000       ??_C@_0CC@LODBDECI@First?5argument?5must?5be?5a?5functi@ 10026000     serialport_win.obj
 0002:00007024       ??_C@_0BK@HOONEKAK@SetupDiGetDevicePropertyW@ 10026024     serialport_win.obj
 0002:00007040       ??_C@_0N@MHOAJMOA@Setupapi?4dll@ 10026040     serialport_win.obj
 0002:00007050       ??_C@_03BMPLCLAP@?$CFws@   10026050     serialport_win.obj
 0002:00007054       ??_C@_0DA@MDENMIMP@SYSTEM?2CurrentControlSet?2Enum?2U@ 10026054     serialport_win.obj
 0002:00007084       ??_C@_0DD@CKPCKPPB@SYSTEM?2CurrentControlSet?2Enum?2U@ 10026084     serialport_win.obj
 0002:000070b8       ??_C@_0M@CJLBPDCJ@ContainerID@ 100260b8     serialport_win.obj
 0002:000070c4       ??_C@_04CCCCEBLJ@VID_@     100260c4     serialport_win.obj
 0002:000070cc       ??_C@_04KNGCLEBJ@PID_@     100260cc     serialport_win.obj
 0002:000070d4       ??_C@_08LFPHCHDK@PortName@ 100260d4     serialport_win.obj
 0002:000070e0       ??_C@_03GJALCMIF@COM@      100260e0     serialport_win.obj
 0002:000070e4       ??_C@_04LNEJFJGI@path@     100260e4     serialport_win.obj
 0002:000070ec       ??_C@_0N@KCKFIEGL@manufacturer@ 100260ec     serialport_win.obj
 0002:000070fc       ??_C@_0N@OMOHFKCJ@serialNumber@ 100260fc     serialport_win.obj
 0002:0000710c       ??_C@_05HGPICCMB@pnpId@    1002610c     serialport_win.obj
 0002:00007114       ??_C@_0L@BOGINKLP@locationId@ 10026114     serialport_win.obj
 0002:00007120       ??_C@_08OOCGBFEC@vendorId@ 10026120     serialport_win.obj
 0002:0000712c       ??_C@_09FNKBJNGL@productId@ 1002612c     serialport_win.obj
 0002:00007138       ??_C@_0CA@HDFPFIDE@Flushing?5connection?5?$CIPurgeComm?$CJ@ 10026138     serialport_win.obj
 0002:00007158       ??_C@_0CH@KHNGIEJJ@Draining?5connection?5?$CIFlushFileB@ 10026158     serialport_win.obj
 0002:00007180       ??_C@_0O@NKNMEGII@list?5too?5long@ 10026180     serialport_win.obj
 0002:00007190       _DEVPKEY_Device_ContainerId 10026190     serialport_win.obj
 0002:000071a4       _GUID_DEVCLASS_PORTS       100261a4     serialport_win.obj
 0002:000071b4       ??_C@_08JDDNMFDB@node?4exe@ 100261b4     win_delay_load_hook.obj
 0002:000071c0       __real@3ff6666666666666    100261c0     serialport.obj
 0002:000071c8       __real@3ff999999999999a    100261c8     serialport.obj
 0002:000071d0       __real@4000000000000000    100261d0     serialport.obj
 0002:000071d8       __real@bff0000000000000    100261d8     serialport.obj
 0002:00007280       ??_R4exception@std@@6B@    10026280     libcpmt:xthrow.obj
 0002:00007294       ??_R3exception@std@@8      10026294     libcpmt:xthrow.obj
 0002:000072a4       ??_R2exception@std@@8      100262a4     libcpmt:xthrow.obj
 0002:000072ac       ??_R1A@?0A@EA@exception@std@@8 100262ac     libcpmt:xthrow.obj
 0002:000072c8       ??_R4bad_alloc@std@@6B@    100262c8     libcpmt:xthrow.obj
 0002:000072dc       ??_R3bad_alloc@std@@8      100262dc     libcpmt:xthrow.obj
 0002:000072ec       ??_R2bad_alloc@std@@8      100262ec     libcpmt:xthrow.obj
 0002:000072f8       ??_R1A@?0A@EA@bad_alloc@std@@8 100262f8     libcpmt:xthrow.obj
 0002:00007314       ??_R4logic_error@std@@6B@  10026314     libcpmt:xthrow.obj
 0002:00007328       ??_R3logic_error@std@@8    10026328     libcpmt:xthrow.obj
 0002:00007338       ??_R2logic_error@std@@8    10026338     libcpmt:xthrow.obj
 0002:00007344       ??_R1A@?0A@EA@logic_error@std@@8 10026344     libcpmt:xthrow.obj
 0002:00007360       ??_R4length_error@std@@6B@ 10026360     libcpmt:xthrow.obj
 0002:00007374       ??_R3length_error@std@@8   10026374     libcpmt:xthrow.obj
 0002:00007384       ??_R2length_error@std@@8   10026384     libcpmt:xthrow.obj
 0002:00007394       ??_R1A@?0A@EA@length_error@std@@8 10026394     libcpmt:xthrow.obj
 0002:000073b0       ??_R4type_info@@6B@        100263b0     LIBCMT:std_type_info_static.obj
 0002:000073c4       ??_R3type_info@@8          100263c4     LIBCMT:std_type_info_static.obj
 0002:000073d4       ??_R2type_info@@8          100263d4     LIBCMT:std_type_info_static.obj
 0002:000073dc       ??_R1A@?0A@EA@type_info@@8 100263dc     LIBCMT:std_type_info_static.obj
 0002:000073f8       ??_R4bad_array_new_length@std@@6B@ 100263f8     LIBCMT:throw_bad_alloc.obj
 0002:0000740c       ??_R3bad_array_new_length@std@@8 1002640c     LIBCMT:throw_bad_alloc.obj
 0002:0000741c       ??_R2bad_array_new_length@std@@8 1002641c     LIBCMT:throw_bad_alloc.obj
 0002:0000742c       ??_R1A@?0A@EA@bad_array_new_length@std@@8 1002642c     LIBCMT:throw_bad_alloc.obj
 0002:00007448       ??_R4bad_exception@std@@6B@ 10026448     libvcruntime:frame.obj
 0002:0000745c       ??_R3bad_exception@std@@8  1002645c     libvcruntime:frame.obj
 0002:0000746c       ??_R2bad_exception@std@@8  1002646c     libvcruntime:frame.obj
 0002:00007478       ??_R1A@?0A@EA@bad_exception@std@@8 10026478     libvcruntime:frame.obj
 0002:00007494       ___safe_se_handler_table   10026494     <linker-defined>
 0002:00007570       ___volatile_metadata       10026570     <linker-defined>
 0002:000079a4       ___rtc_iaa                 100269a4     LIBCMT:initsect.obj
 0002:000079a8       ___rtc_izz                 100269a8     LIBCMT:initsect.obj
 0002:000079ac       ___rtc_taa                 100269ac     LIBCMT:initsect.obj
 0002:000079b0       ___rtc_tzz                 100269b0     LIBCMT:initsect.obj
 0002:000088b8       __CT??_R0?AVbad_alloc@std@@@8??0bad_alloc@std@@QAE@ABV01@@Z12 100278b8     libcpmt:xthrow.obj
 0002:000088d4       __CT??_R0?AVexception@std@@@8??0exception@std@@QAE@ABV01@@Z12 100278d4     libcpmt:xthrow.obj
 0002:000088f0       __TI2?AVbad_alloc@std@@    100278f0     libcpmt:xthrow.obj
 0002:00008900       __CTA2?AVbad_alloc@std@@   10027900     libcpmt:xthrow.obj
 0002:0000890c       __CT??_R0?AVlogic_error@std@@@8??0logic_error@std@@QAE@ABV01@@Z12 1002790c     libcpmt:xthrow.obj
 0002:00008928       __TI3?AVlength_error@std@@ 10027928     libcpmt:xthrow.obj
 0002:00008938       __CTA3?AVlength_error@std@@ 10027938     libcpmt:xthrow.obj
 0002:00008948       __CT??_R0?AVlength_error@std@@@8??0length_error@std@@QAE@ABV01@@Z12 10027948     libcpmt:xthrow.obj
 0002:000089ec       __TI3?AVbad_array_new_length@std@@ 100279ec     LIBCMT:throw_bad_alloc.obj
 0002:000089fc       __CTA3?AVbad_array_new_length@std@@ 100279fc     LIBCMT:throw_bad_alloc.obj
 0002:00008a0c       __CT??_R0?AVbad_array_new_length@std@@@8??0bad_array_new_length@std@@QAE@ABV01@@Z12 10027a0c     LIBCMT:throw_bad_alloc.obj
 0002:00008b2c       __TI2?AVbad_exception@std@@ 10027b2c     libvcruntime:frame.obj
 0002:00008b3c       __CTA2?AVbad_exception@std@@ 10027b3c     libvcruntime:frame.obj
 0002:00008b48       __CT??_R0?AVbad_exception@std@@@8??0bad_exception@std@@QAE@ABV01@@Z12 10027b48     libvcruntime:frame.obj
 0002:00008f44       __DELAY_IMPORT_DESCRIPTOR_node_exe 10027f44     node:node.exe
 0002:00008f64       __NULL_DELAY_IMPORT_DESCRIPTOR 10027f64     node:node.exe
 0002:00009074       \177node_NULL_THUNK_DATA_DLN 10028074     node:node.exe
 0002:00009fa8       \177node_NULL_THUNK_DATA_DLB 10028fa8     node:node.exe
 0002:0000a0f8       __IMPORT_DESCRIPTOR_KERNEL32 100290f8     kernel32:KERNEL32.dll
 0002:0000a10c       __IMPORT_DESCRIPTOR_ADVAPI32 1002910c     advapi32:ADVAPI32.dll
 0002:0000a120       __IMPORT_DESCRIPTOR_ole32  10029120     ole32:ole32.dll
 0002:0000a134       __IMPORT_DESCRIPTOR_SETUPAPI 10029134     setupapi:SETUPAPI.dll
 0002:0000a148       __NULL_IMPORT_DESCRIPTOR   10029148     kernel32:KERNEL32.dll
 0003:00000000       ___scrt_native_dllmain_reason 1002a000     LIBCMT:utility.obj
 0003:00000004       ___security_cookie_complement 1002a004     LIBCMT:gs_cookie.obj
 0003:00000008       ___security_cookie         1002a008     LIBCMT:gs_cookie.obj
 0003:0000000c       ___isa_enabled             1002a00c     LIBCMT:cpu_disp.obj
 0003:00000020       __NLG_Destination          1002a020     libvcruntime:exsup.obj
 0003:00000030       ___abort_behavior          1002a030     libucrt:abort.obj
 0003:00000050       __iob                      1002a050     libucrt:_file.obj
 0003:000000f8       ___acrt_initial_locale_data 1002a0f8     libucrt:nlsdata.obj
 0003:000001b0       ___acrt_initial_locale_pointers 1002a1b0     libucrt:nlsdata.obj
 0003:000001b8       ___acrt_wide_c_locale_string 1002a1b8     libucrt:nlsdata.obj
 0003:000001c0       ___badioinfo               1002a1c0     libucrt:ioinit.obj
 0003:000001f8       ___acrt_initial_multibyte_data 1002a1f8     libucrt:mbctype.obj
 0003:00000720       __pwctype                  1002a720     libucrt:ctype.obj
 0003:00000724       ___globallocalestatus      1002a724     libucrt:glstatus.obj
 0003:00000728       ___acrt_lconv_c            1002a728     libucrt:localeconv.obj
 0003:00000778       ___acrt_lconv_static_decimal 1002a778     libucrt:localeconv.obj
 0003:0000077c       ___acrt_lconv_static_W_decimal 1002a77c     libucrt:localeconv.obj
 0003:00000780       __lookuptrailbytes         1002a780     libucrt:read.obj
 0003:00000890       __fltused                  1002a890     LIBCMT:fltused.obj
 0003:000008c4       ??_R0?AVbad_alloc@std@@@8  1002a8c4     libcpmt:xthrow.obj
 0003:000008e0       ??_R0?AVexception@std@@@8  1002a8e0     libcpmt:xthrow.obj
 0003:000008fc       ??_R0?AVlogic_error@std@@@8 1002a8fc     libcpmt:xthrow.obj
 0003:0000091c       ??_R0?AVlength_error@std@@@8 1002a91c     libcpmt:xthrow.obj
 0003:0000093c       ??_R0?AVbad_array_new_length@std@@@8 1002a93c     LIBCMT:throw_bad_alloc.obj
 0003:00000964       ??_R0?AVbad_exception@std@@@8 1002a964     libvcruntime:frame.obj
 0003:00000984       ??_R0?AVtype_info@@@8      1002a984     LIBCMT:std_type_info_static.obj
 0003:0000099c       __imp__uv_queue_work       1002a99c     node:node.exe
 0003:000009a0       __imp__uv_async_send       1002a9a0     node:node.exe
 0003:000009a4       __imp_?Global@Context@v8@@QAE?AV?$Local@VObject@v8@@@2@XZ 1002a9a4     node:node.exe
 0003:000009a8       __imp_?Value@External@v8@@QBEPAXXZ 1002a9a8     node:node.exe
 0003:000009ac       __imp_?New@External@v8@@SA?AV?$Local@VExternal@v8@@@2@PAVIsolate@2@PAX@Z 1002a9ac     node:node.exe
 0003:000009b0       __imp_?New@Integer@v8@@SA?AV?$Local@VInteger@v8@@@2@PAVIsolate@2@H@Z 1002a9b0     node:node.exe
 0003:000009b4       __imp_?ThrowException@Isolate@v8@@QAE?AV?$Local@VValue@v8@@@2@V32@@Z 1002a9b4     node:node.exe
 0003:000009b8       __imp_?GetCurrentContext@Isolate@v8@@QAE?AV?$Local@VContext@v8@@@2@XZ 1002a9b8     node:node.exe
 0003:000009bc       __imp_?GetCurrent@Isolate@v8@@SAPAV12@XZ 1002a9bc     node:node.exe
 0003:000009c0       __imp_?CreateHandle@HandleScope@v8@@KAPAPAVObject@internal@2@PAVIsolate@42@PAV342@@Z 1002a9c0     node:node.exe
 0003:000009c4       __imp_?CreateHandle@HandleScope@v8@@CAPAPAVObject@internal@2@PAVHeapObject@42@PAV342@@Z 1002a9c4     node:node.exe
 0003:000009c8       __imp_??1HandleScope@v8@@QAE@XZ 1002a9c8     node:node.exe
 0003:000009cc       __imp_??0HandleScope@v8@@QAE@PAVIsolate@1@@Z 1002a9cc     node:node.exe
 0003:000009d0       __imp_?Error@Exception@v8@@SA?AV?$Local@VValue@v8@@@2@V?$Local@VString@v8@@@2@@Z 1002a9d0     node:node.exe
 0003:000009d4       __imp_?TypeError@Exception@v8@@SA?AV?$Local@VValue@v8@@@2@V?$Local@VString@v8@@@2@@Z 1002a9d4     node:node.exe
 0003:000009d8       __imp_?SetClassName@FunctionTemplate@v8@@QAEXV?$Local@VString@v8@@@2@@Z 1002a9d8     node:node.exe
 0003:000009dc       __imp_?GetFunction@FunctionTemplate@v8@@QAE?AV?$MaybeLocal@VFunction@v8@@@2@V?$Local@VContext@v8@@@2@@Z 1002a9dc     node:node.exe
 0003:000009e0       __imp_?New@FunctionTemplate@v8@@SA?AV?$Local@VFunctionTemplate@v8@@@2@PAVIsolate@2@P6AXABV?$FunctionCallbackInfo@VValue@v8@@@2@@ZV?$Local@VValue@v8@@@2@V?$Local@VSignature@v8@@@2@HW4ConstructorBehavior@2@W4SideEffectType@2@@Z 1002a9e0     node:node.exe
 0003:000009e4       __imp_?Value@Boolean@v8@@QBE_NXZ 1002a9e4     node:node.exe
 0003:000009e8       __imp_?ToLocalEmpty@V8@v8@@CAXXZ 1002a9e8     node:node.exe
 0003:000009ec       __imp_?DisposeGlobal@V8@v8@@CAXPAPAVObject@internal@2@@Z 1002a9ec     node:node.exe
 0003:000009f0       __imp_?GlobalizeReference@V8@v8@@CAPAPAVObject@internal@2@PAVIsolate@42@PAPAV342@@Z 1002a9f0     node:node.exe
 0003:000009f4       __imp_?Int32Value@Value@v8@@QBE?AV?$Maybe@H@2@V?$Local@VContext@v8@@@2@@Z 1002a9f4     node:node.exe
 0003:000009f8       __imp_?NumberValue@Value@v8@@QBE?AV?$Maybe@N@2@V?$Local@VContext@v8@@@2@@Z 1002a9f8     node:node.exe
 0003:000009fc       __imp_?ToInt32@Value@v8@@QBE?AV?$MaybeLocal@VInt32@v8@@@2@V?$Local@VContext@v8@@@2@@Z 1002a9fc     node:node.exe
 0003:00000a00       __imp_?ToInteger@Value@v8@@QBE?AV?$MaybeLocal@VInteger@v8@@@2@V?$Local@VContext@v8@@@2@@Z 1002aa00     node:node.exe
 0003:00000a04       __imp_?ToObject@Value@v8@@QBE?AV?$MaybeLocal@VObject@v8@@@2@V?$Local@VContext@v8@@@2@@Z 1002aa04     node:node.exe
 0003:00000a08       __imp_?ToString@Value@v8@@QBE?AV?$MaybeLocal@VString@v8@@@2@V?$Local@VContext@v8@@@2@@Z 1002aa08     node:node.exe
 0003:00000a0c       __imp_?ToBoolean@Value@v8@@QBE?AV?$MaybeLocal@VBoolean@v8@@@2@V?$Local@VContext@v8@@@2@@Z 1002aa0c     node:node.exe
 0003:00000a10       __imp_?IsInt32@Value@v8@@QBE_NXZ 1002aa10     node:node.exe
 0003:00000a14       __imp_?IsObject@Value@v8@@QBE_NXZ 1002aa14     node:node.exe
 0003:00000a18       __imp_?IsFunction@Value@v8@@QBE_NXZ 1002aa18     node:node.exe
 0003:00000a1c       __imp_?Escape@EscapableHandleScope@v8@@AAEPAPAVObject@internal@2@PAPAV342@@Z 1002aa1c     node:node.exe
 0003:00000a20       __imp_??0EscapableHandleScope@v8@@QAE@PAVIsolate@1@@Z 1002aa20     node:node.exe
 0003:00000a24       __imp_?NewFromUtf8@String@v8@@SA?AV?$MaybeLocal@VString@v8@@@2@PAVIsolate@2@PBDW4NewStringType@2@H@Z 1002aa24     node:node.exe
 0003:00000a28       __imp_?WriteUtf8@String@v8@@QBEHPADHPAHH@Z 1002aa28     node:node.exe
 0003:00000a2c       __imp_?Length@String@v8@@QBEHXZ 1002aa2c     node:node.exe
 0003:00000a30       __imp_?Value@Int32@v8@@QBEHXZ 1002aa30     node:node.exe
 0003:00000a34       __imp_?SlowGetInternalField@Object@v8@@AAE?AV?$Local@VValue@v8@@@2@H@Z 1002aa34     node:node.exe
 0003:00000a38       __imp_?New@Object@v8@@SA?AV?$Local@VObject@v8@@@2@PAVIsolate@2@@Z 1002aa38     node:node.exe
 0003:00000a3c       __imp_?SetInternalField@Object@v8@@QAEXHV?$Local@VValue@v8@@@2@@Z 1002aa3c     node:node.exe
 0003:00000a40       __imp_?Has@Object@v8@@QAE?AV?$Maybe@_N@2@V?$Local@VContext@v8@@@2@V?$Local@VValue@v8@@@2@@Z 1002aa40     node:node.exe
 0003:00000a44       __imp_?Get@Object@v8@@QAE?AV?$MaybeLocal@VValue@v8@@@2@V?$Local@VContext@v8@@@2@V?$Local@VValue@v8@@@2@@Z 1002aa44     node:node.exe
 0003:00000a48       __imp_?Set@Object@v8@@QAE?AV?$Maybe@_N@2@V?$Local@VContext@v8@@@2@V?$Local@VValue@v8@@@2@1@Z 1002aa48     node:node.exe
 0003:00000a4c       __imp_?SetInternalFieldCount@ObjectTemplate@v8@@QAEXH@Z 1002aa4c     node:node.exe
 0003:00000a50       __imp_?NewInstance@ObjectTemplate@v8@@QAE?AV?$MaybeLocal@VObject@v8@@@2@V?$Local@VContext@v8@@@2@@Z 1002aa50     node:node.exe
 0003:00000a54       __imp_?New@ObjectTemplate@v8@@SA?AV?$Local@VObjectTemplate@v8@@@2@PAVIsolate@2@V?$Local@VFunctionTemplate@v8@@@2@@Z 1002aa54     node:node.exe
 0003:00000a58       __imp_?EmitAsyncDestroy@node@@YAXPAVIsolate@v8@@Uasync_context@1@@Z 1002aa58     node:node.exe
 0003:00000a5c       __imp__node_module_register 1002aa5c     node:node.exe
 0003:00000a60       __imp_?MakeCallback@node@@YA?AV?$MaybeLocal@VValue@v8@@@v8@@PAVIsolate@3@V?$Local@VObject@v8@@@3@V?$Local@VFunction@v8@@@3@HPAV?$Local@VValue@v8@@@3@Uasync_context@1@@Z 1002aa60     node:node.exe
 0003:00000a64       __imp_?EmitAsyncInit@node@@YA?AUasync_context@1@PAVIsolate@v8@@V?$Local@VObject@v8@@@4@V?$Local@VString@v8@@@4@N@Z 1002aa64     node:node.exe
 0003:00000a68       __imp__uv_default_loop     1002aa68     node:node.exe
 0003:00000a6c       __imp_??1EscapableHandleScope@v8@@QAE@XZ 1002aa6c     node:node.exe
 0003:00000a70       __imp_?New@Array@v8@@SA?AV?$Local@VArray@v8@@@2@PAVIsolate@2@H@Z 1002aa70     node:node.exe
 0003:00000a74       __imp_?Set@Object@v8@@QAE?AV?$Maybe@_N@2@V?$Local@VContext@v8@@@2@IV?$Local@VValue@v8@@@2@@Z 1002aa74     node:node.exe
 0003:00000a78       __imp__uv_close            1002aa78     node:node.exe
 0003:00000a7c       __imp_?HasInstance@Buffer@node@@YA_NV?$Local@VValue@v8@@@v8@@@Z 1002aa7c     node:node.exe
 0003:00000a80       __imp_?Data@Buffer@node@@YAPADV?$Local@VObject@v8@@@v8@@@Z 1002aa80     node:node.exe
 0003:00000a84       __imp_?Length@Buffer@node@@YAIV?$Local@VObject@v8@@@v8@@@Z 1002aa84     node:node.exe
 0003:00000a88       __imp__uv_async_init       1002aa88     node:node.exe
 0003:00000a8c       \177node_NULL_THUNK_DATA_DLA 1002aa8c     node:node.exe
 0003:00000a90       __hmod__node_exe           1002aa90     node:node.exe
 0003:00000a94       ?_Raise_handler@std@@3P6AXABVexception@stdext@@@ZA 1002aa94     libcpmt:raisehan.obj
 0003:00000db4       ___scrt_current_native_startup_state 1002adb4     LIBCMT:utility.obj
 0003:00000db8       ___scrt_native_startup_lock 1002adb8     LIBCMT:utility.obj
 0003:00000ddc       ___isa_available           1002addc     LIBCMT:cpu_disp.obj
 0003:00000de0       ___favor                   1002ade0     LIBCMT:cpu_disp.obj
 0003:00000de4       ___scrt_debugger_hook_flag 1002ade4     LIBCMT:utility_desktop.obj
 0003:00000de8       ___castguard_check_failure_os_handled_fptr 1002ade8     LIBCMT:guard_support.obj
 0003:00000df0       ?__type_info_root_node@@3U__type_info_node@@A 1002adf0     LIBCMT:tncleanup.obj
 0003:00000df8       ?_OptionsStorage@?1??__local_stdio_scanf_options@@9@4_KA 1002adf8     LIBCMT:default_local_stdio_options.obj
 0003:00000e00       ?__WinRTOutOfMemoryExceptionCallback@@3P6GPAXXZA 1002ae00     libvcruntime:ehhelpers.obj
 0003:00000e48       ?pArgList@UnDecorator@@0PAVReplicator@@A 1002ae48     libvcruntime:undname.obj
 0003:00000e4c       ?pZNameList@UnDecorator@@0PAVReplicator@@A 1002ae4c     libvcruntime:undname.obj
 0003:00000e50       ?pTemplateArgList@UnDecorator@@0PAVReplicator@@A 1002ae50     libvcruntime:undname.obj
 0003:00000e54       ?gName@UnDecorator@@0PBDB  1002ae54     libvcruntime:undname.obj
 0003:00000e58       ?name@UnDecorator@@0PBDB   1002ae58     libvcruntime:undname.obj
 0003:00000e5c       ?disableFlags@UnDecorator@@0KA 1002ae5c     libvcruntime:undname.obj
 0003:00000e60       ?fExplicitTemplateParams@UnDecorator@@0_NA 1002ae60     libvcruntime:undname.obj
 0003:00000e61       ?fGetTemplateArgumentList@UnDecorator@@0_NA 1002ae61     libvcruntime:undname.obj
 0003:00000e64       ?m_pGetParameter@UnDecorator@@0P6APADJ@ZA 1002ae64     libvcruntime:undname.obj
 0003:00000e68       ?m_CHPENameOffset@UnDecorator@@0KA 1002ae68     libvcruntime:undname.obj
 0003:00000e6c       ?m_recursionLevel@UnDecorator@@0KA 1002ae6c     libvcruntime:undname.obj
 0003:00000ea4       ___pPurecall               1002aea4     libvcruntime:purevirt_data.obj
 0003:00000eb8       ?c_exit_complete@?1???R<lambda_6e4b09c48022b2350581041d5f6b0c4c>@@QBE@XZ@4_NA 1002aeb8     libucrt:exit.obj
 0003:00000fc8       __environ_table            1002afc8     libucrt:environment_initialization.obj
 0003:00000fcc       __wenviron_table           1002afcc     libucrt:environment_initialization.obj
 0003:00000fd0       ___dcrt_initial_wide_environment 1002afd0     libucrt:environment_initialization.obj
 0003:00000fd4       ___dcrt_initial_narrow_environment 1002afd4     libucrt:environment_initialization.obj
 0003:00000fd8       ___acrt_atexit_table       1002afd8     libucrt:onexit.obj
 0003:00000fe4       ___acrt_at_quick_exit_table 1002afe4     libucrt:onexit.obj
 0003:00000ff8       __nstream                  1002aff8     libucrt:_file.obj
 0003:00000ffc       ___piob                    1002affc     libucrt:_file.obj
 0003:00001000       __cflush                   1002b000     libucrt:_file.obj
 0003:00001008       ___acrt_stdout_buffer      1002b008     libucrt:_sftbuf.obj
 0003:0000100c       ___acrt_stderr_buffer      1002b00c     libucrt:_sftbuf.obj
 0003:00001010       ___acrt_locale_changed_data 1002b010     libucrt:wsetlocale.obj
 0003:00001014       ___acrt_current_locale_data 1002b014     libucrt:nlsdata.obj
 0003:00001018       ___pioinfo                 1002b018     libucrt:ioinit.obj
 0003:00001218       __nhandle                  1002b218     libucrt:ioinit.obj
 0003:00001394       __mbctype                  1002b394     libucrt:mbctype.obj
 0003:00001398       __mbcasemap                1002b398     libucrt:mbctype.obj
 0003:0000139c       ___acrt_current_multibyte_data 1002b39c     libucrt:mbctype.obj
 0003:000013a8       __pgmptr                   1002b3a8     libucrt:argv_data.obj
 0003:000013ac       ___argc                    1002b3ac     libucrt:argv_data.obj
 0003:000013b0       ___argv                    1002b3b0     libucrt:argv_data.obj
 0003:000013b4       ___wargv                   1002b3b4     libucrt:argv_data.obj
 0003:000013b8       __acmdln                   1002b3b8     libucrt:argv_data.obj
 0003:000013bc       __wcmdln                   1002b3bc     libucrt:argv_data.obj
 0003:00001498       ___acrt_heap               1002b498     libucrt:heap_handle.obj
 0003:000014a4       ___acrt_lconv_static_null  1002b4a4     libucrt:localeconv.obj
 0003:000014a8       ___acrt_lconv_static_W_null 1002b4a8     libucrt:localeconv.obj
 0003:000014b4       ___fastflag                1002b4b4     libucrt:fp_flags.obj
 0003:000014bc       ?DloadKernel32@@3PAUHINSTANCE__@@A 1002b4bc     DelayImp:delayhlp.obj
 0003:000014c0       ?DloadAcquireSRWLockExclusive@@3P6GXPAK@ZA 1002b4c0     DelayImp:delayhlp.obj
 0003:000014c4       ?DloadReleaseSRWLockExclusive@@3P6GXPAK@ZA 1002b4c4     DelayImp:delayhlp.obj
 0003:000014c8       ?DloadSrwLock@@3KA         1002b4c8     DelayImp:delayhlp.obj
 0003:000014cc       ?DloadSectionLockCount@@3KA 1002b4cc     DelayImp:delayhlp.obj
 0003:000014d0       ?DloadSectionOldProtection@@3KA 1002b4d0     DelayImp:delayhlp.obj
 0003:000014d4       ?DloadSectionCommitPermanent@@3KA 1002b4d4     DelayImp:delayhlp.obj
 0003:000014d8       ?_OptionsStorage@?1??__local_stdio_printf_options@@9@4_KA 1002b4d8     serialport.obj
 0003:000014e0       ?g_closingHandles@@3V?$list@HV?$allocator@H@std@@@std@@A 1002b4e0     serialport_win.obj
 0003:000014e8       ___dyn_tls_init_callback   1002b4e8     <common>
 0003:000014ec       ___scrt_ucrt_dll_is_in_use 1002b4ec     <common>
 0003:000014f0       __pmatherr                 1002b4f0     <common>
 0003:000014f4       ___use_sse2_mathfcns       1002b4f4     <common>

 entry point at        0001:0000733e

 Static symbols

 0000:fffd1000       .debug$S                   10000000     bindings.exp
 0000:fffd1000       .debug$S                   10000000     advapi32:ADVAPI32.dll
 0000:fffd1000       .debug$S                   10000000     advapi32:ADVAPI32.dll
 0000:fffd1000       .debug$S                   10000000     advapi32:ADVAPI32.dll
 0000:fffd1000       .debug$S                   10000000     advapi32:ADVAPI32.dll
 0000:fffd1000       .debug$S                   10000000     advapi32:ADVAPI32.dll
 0000:fffd1000       .debug$S                   10000000     kernel32:KERNEL32.dll
 0000:fffd1000       .debug$S                   10000000     kernel32:KERNEL32.dll
 0000:fffd1000       .debug$S                   10000000     kernel32:KERNEL32.dll
 0000:fffd1000       .debug$S                   10000000     kernel32:KERNEL32.dll
 0000:fffd1000       .debug$S                   10000000     kernel32:KERNEL32.dll
 0000:fffd1000       .debug$S                   10000000     kernel32:KERNEL32.dll
 0000:fffd1000       .debug$S                   10000000     kernel32:KERNEL32.dll
 0000:fffd1000       .debug$S                   10000000     kernel32:KERNEL32.dll
 0000:fffd1000       .debug$S                   10000000     kernel32:KERNEL32.dll
 0000:fffd1000       .debug$S                   10000000     kernel32:KERNEL32.dll
 0000:fffd1000       .debug$S                   10000000     kernel32:KERNEL32.dll
 0000:fffd1000       .debug$S                   10000000     kernel32:KERNEL32.dll
 0000:fffd1000       .debug$S                   10000000     kernel32:KERNEL32.dll
 0000:fffd1000       .debug$S                   10000000     kernel32:KERNEL32.dll
 0000:fffd1000       .debug$S                   10000000     kernel32:KERNEL32.dll
 0000:fffd1000       .debug$S                   10000000     kernel32:KERNEL32.dll
 0000:fffd1000       .debug$S                   10000000     kernel32:KERNEL32.dll
 0000:fffd1000       .debug$S                   10000000     kernel32:KERNEL32.dll
 0000:fffd1000       .debug$S                   10000000     kernel32:KERNEL32.dll
 0000:fffd1000       .debug$S                   10000000     kernel32:KERNEL32.dll
 0000:fffd1000       .debug$S                   10000000     kernel32:KERNEL32.dll
 0000:fffd1000       .debug$S                   10000000     kernel32:KERNEL32.dll
 0000:fffd1000       .debug$S                   10000000     kernel32:KERNEL32.dll
 0000:fffd1000       .debug$S                   10000000     kernel32:KERNEL32.dll
 0000:fffd1000       .debug$S                   10000000     kernel32:KERNEL32.dll
 0000:fffd1000       .debug$S                   10000000     kernel32:KERNEL32.dll
 0000:fffd1000       .debug$S                   10000000     kernel32:KERNEL32.dll
 0000:fffd1000       .debug$S                   10000000     kernel32:KERNEL32.dll
 0000:fffd1000       .debug$S                   10000000     kernel32:KERNEL32.dll
 0000:fffd1000       .debug$S                   10000000     kernel32:KERNEL32.dll
 0000:fffd1000       .debug$S                   10000000     kernel32:KERNEL32.dll
 0000:fffd1000       .debug$S                   10000000     kernel32:KERNEL32.dll
 0000:fffd1000       .debug$S                   10000000     kernel32:KERNEL32.dll
 0000:fffd1000       .debug$S                   10000000     kernel32:KERNEL32.dll
 0000:fffd1000       .debug$S                   10000000     kernel32:KERNEL32.dll
 0000:fffd1000       .debug$S                   10000000     kernel32:KERNEL32.dll
 0000:fffd1000       .debug$S                   10000000     kernel32:KERNEL32.dll
 0000:fffd1000       .debug$S                   10000000     kernel32:KERNEL32.dll
 0000:fffd1000       .debug$S                   10000000     kernel32:KERNEL32.dll
 0000:fffd1000       .debug$S                   10000000     kernel32:KERNEL32.dll
 0000:fffd1000       .debug$S                   10000000     kernel32:KERNEL32.dll
 0000:fffd1000       .debug$S                   10000000     kernel32:KERNEL32.dll
 0000:fffd1000       .debug$S                   10000000     kernel32:KERNEL32.dll
 0000:fffd1000       .debug$S                   10000000     kernel32:KERNEL32.dll
 0000:fffd1000       .debug$S                   10000000     kernel32:KERNEL32.dll
 0000:fffd1000       .debug$S                   10000000     kernel32:KERNEL32.dll
 0000:fffd1000       .debug$S                   10000000     kernel32:KERNEL32.dll
 0000:fffd1000       .debug$S                   10000000     kernel32:KERNEL32.dll
 0000:fffd1000       .debug$S                   10000000     kernel32:KERNEL32.dll
 0000:fffd1000       .debug$S                   10000000     kernel32:KERNEL32.dll
 0000:fffd1000       .debug$S                   10000000     kernel32:KERNEL32.dll
 0000:fffd1000       .debug$S                   10000000     kernel32:KERNEL32.dll
 0000:fffd1000       .debug$S                   10000000     kernel32:KERNEL32.dll
 0000:fffd1000       .debug$S                   10000000     kernel32:KERNEL32.dll
 0000:fffd1000       .debug$S                   10000000     kernel32:KERNEL32.dll
 0000:fffd1000       .debug$S                   10000000     kernel32:KERNEL32.dll
 0000:fffd1000       .debug$S                   10000000     kernel32:KERNEL32.dll
 0000:fffd1000       .debug$S                   10000000     kernel32:KERNEL32.dll
 0000:fffd1000       .debug$S                   10000000     kernel32:KERNEL32.dll
 0000:fffd1000       .debug$S                   10000000     kernel32:KERNEL32.dll
 0000:fffd1000       .debug$S                   10000000     kernel32:KERNEL32.dll
 0000:fffd1000       .debug$S                   10000000     kernel32:KERNEL32.dll
 0000:fffd1000       .debug$S                   10000000     kernel32:KERNEL32.dll
 0000:fffd1000       .debug$S                   10000000     kernel32:KERNEL32.dll
 0000:fffd1000       .debug$S                   10000000     kernel32:KERNEL32.dll
 0000:fffd1000       .debug$S                   10000000     kernel32:KERNEL32.dll
 0000:fffd1000       .debug$S                   10000000     kernel32:KERNEL32.dll
 0000:fffd1000       .debug$S                   10000000     kernel32:KERNEL32.dll
 0000:fffd1000       .debug$S                   10000000     kernel32:KERNEL32.dll
 0000:fffd1000       .debug$S                   10000000     kernel32:KERNEL32.dll
 0000:fffd1000       .debug$S                   10000000     kernel32:KERNEL32.dll
 0000:fffd1000       .debug$S                   10000000     kernel32:KERNEL32.dll
 0000:fffd1000       .debug$S                   10000000     kernel32:KERNEL32.dll
 0000:fffd1000       .debug$S                   10000000     kernel32:KERNEL32.dll
 0000:fffd1000       .debug$S                   10000000     kernel32:KERNEL32.dll
 0000:fffd1000       .debug$S                   10000000     kernel32:KERNEL32.dll
 0000:fffd1000       .debug$S                   10000000     kernel32:KERNEL32.dll
 0000:fffd1000       .debug$S                   10000000     kernel32:KERNEL32.dll
 0000:fffd1000       .debug$S                   10000000     kernel32:KERNEL32.dll
 0000:fffd1000       .debug$S                   10000000     kernel32:KERNEL32.dll
 0000:fffd1000       .debug$S                   10000000     kernel32:KERNEL32.dll
 0000:fffd1000       .debug$S                   10000000     kernel32:KERNEL32.dll
 0000:fffd1000       .debug$S                   10000000     kernel32:KERNEL32.dll
 0000:fffd1000       .debug$S                   10000000     kernel32:KERNEL32.dll
 0000:fffd1000       .debug$S                   10000000     kernel32:KERNEL32.dll
 0000:fffd1000       .debug$S                   10000000     kernel32:KERNEL32.dll
 0000:fffd1000       .debug$S                   10000000     kernel32:KERNEL32.dll
 0000:fffd1000       .debug$S                   10000000     kernel32:KERNEL32.dll
 0000:fffd1000       .debug$S                   10000000     kernel32:KERNEL32.dll
 0000:fffd1000       .debug$S                   10000000     kernel32:KERNEL32.dll
 0000:fffd1000       .debug$S                   10000000     kernel32:KERNEL32.dll
 0000:fffd1000       .debug$S                   10000000     kernel32:KERNEL32.dll
 0000:fffd1000       .debug$S                   10000000     kernel32:KERNEL32.dll
 0000:fffd1000       .debug$S                   10000000     kernel32:KERNEL32.dll
 0000:fffd1000       .debug$S                   10000000     kernel32:KERNEL32.dll
 0000:fffd1000       .debug$S                   10000000     kernel32:KERNEL32.dll
 0000:fffd1000       .debug$S                   10000000     kernel32:KERNEL32.dll
 0000:fffd1000       .debug$S                   10000000     kernel32:KERNEL32.dll
 0000:fffd1000       .debug$S                   10000000     kernel32:KERNEL32.dll
 0000:fffd1000       .debug$S                   10000000     kernel32:KERNEL32.dll
 0000:fffd1000       .debug$S                   10000000     kernel32:KERNEL32.dll
 0000:fffd1000       .debug$S                   10000000     kernel32:KERNEL32.dll
 0000:fffd1000       .debug$S                   10000000     kernel32:KERNEL32.dll
 0000:fffd1000       .debug$S                   10000000     ole32:ole32.dll
 0000:fffd1000       .debug$S                   10000000     setupapi:SETUPAPI.dll
 0000:fffd1000       .debug$S                   10000000     setupapi:SETUPAPI.dll
 0000:fffd1000       .debug$S                   10000000     setupapi:SETUPAPI.dll
 0000:fffd1000       .debug$S                   10000000     setupapi:SETUPAPI.dll
 0000:fffd1000       .debug$S                   10000000     setupapi:SETUPAPI.dll
 0000:fffd1000       .debug$S                   10000000     setupapi:SETUPAPI.dll
 0000:fffd1000       .debug$S                   10000000     node:node.exe
 0000:fffd1000       .debug$S                   10000000     node:node.exe
 0000:fffd1000       .debug$S                   10000000     node:node.exe
 0000:fffd1000       .debug$S                   10000000     node:node.exe
 0000:fffd1000       .debug$S                   10000000     node:node.exe
 0000:fffd1000       .debug$S                   10000000     node:node.exe
 0000:fffd1000       .debug$S                   10000000     node:node.exe
 0000:fffd1000       .debug$S                   10000000     node:node.exe
 0000:fffd1000       .debug$S                   10000000     node:node.exe
 0000:fffd1000       .debug$S                   10000000     node:node.exe
 0000:fffd1000       .debug$S                   10000000     node:node.exe
 0000:fffd1000       .debug$S                   10000000     node:node.exe
 0000:fffd1000       .debug$S                   10000000     node:node.exe
 0000:fffd1000       .debug$S                   10000000     node:node.exe
 0000:fffd1000       .debug$S                   10000000     node:node.exe
 0000:fffd1000       .debug$S                   10000000     node:node.exe
 0000:fffd1000       .debug$S                   10000000     node:node.exe
 0000:fffd1000       .debug$S                   10000000     node:node.exe
 0000:fffd1000       .debug$S                   10000000     node:node.exe
 0000:fffd1000       .debug$S                   10000000     node:node.exe
 0000:fffd1000       .debug$S                   10000000     node:node.exe
 0000:fffd1000       .debug$S                   10000000     node:node.exe
 0000:fffd1000       .debug$S                   10000000     node:node.exe
 0000:fffd1000       .debug$S                   10000000     node:node.exe
 0000:fffd1000       .debug$S                   10000000     node:node.exe
 0000:fffd1000       .debug$S                   10000000     node:node.exe
 0000:fffd1000       .debug$S                   10000000     node:node.exe
 0000:fffd1000       .debug$S                   10000000     node:node.exe
 0000:fffd1000       .debug$S                   10000000     node:node.exe
 0000:fffd1000       .debug$S                   10000000     node:node.exe
 0000:fffd1000       .debug$S                   10000000     node:node.exe
 0000:fffd1000       .debug$S                   10000000     node:node.exe
 0000:fffd1000       .debug$S                   10000000     node:node.exe
 0000:fffd1000       .debug$S                   10000000     node:node.exe
 0000:fffd1000       .debug$S                   10000000     node:node.exe
 0000:fffd1000       .debug$S                   10000000     node:node.exe
 0000:fffd1000       .debug$S                   10000000     node:node.exe
 0000:fffd1000       .debug$S                   10000000     node:node.exe
 0000:fffd1000       .debug$S                   10000000     node:node.exe
 0000:fffd1000       .debug$S                   10000000     node:node.exe
 0000:fffd1000       .debug$S                   10000000     node:node.exe
 0000:fffd1000       .debug$S                   10000000     node:node.exe
 0000:fffd1000       .debug$S                   10000000     node:node.exe
 0000:fffd1000       .debug$S                   10000000     node:node.exe
 0000:fffd1000       .debug$S                   10000000     node:node.exe
 0000:fffd1000       .debug$S                   10000000     node:node.exe
 0000:fffd1000       .debug$S                   10000000     node:node.exe
 0000:fffd1000       .debug$S                   10000000     node:node.exe
 0000:fffd1000       .debug$S                   10000000     node:node.exe
 0000:fffd1000       .debug$S                   10000000     node:node.exe
 0000:fffd1000       .debug$S                   10000000     node:node.exe
 0000:fffd1000       .debug$S                   10000000     node:node.exe
 0000:fffd1000       .debug$S                   10000000     node:node.exe
 0000:fffd1000       .debug$S                   10000000     node:node.exe
 0000:fffd1000       .debug$S                   10000000     node:node.exe
 0000:fffd1000       .debug$S                   10000000     node:node.exe
 0000:fffd1000       .debug$S                   10000000     node:node.exe
 0000:fffd1000       .debug$S                   10000000     node:node.exe
 0000:fffd1000       .debug$S                   10000000     node:node.exe
 0000:fffd1000       .debug$S                   10000000     node:node.exe
 0000:fffd1000       .debug$S                   10000000     node:node.exe
 0000:fffd1000       .debug$S                   10000000     node:node.exe
 0000:fffd1000       .debug$S                   10000000     node:node.exe
 0000:fffd1000       .debug$S                   10000000     node:node.exe
 0000:fffd1000       .debug$S                   10000000     node:node.exe
 0000:fffd1000       .debug$S                   10000000     node:node.exe
 0000:fffd1000       .debug$S                   10000000     node:node.exe
 0001:00000000       ??__Eg_closingHandles@@YAXXZ 10001000 f   serialport_win.obj
 0001:00000370       ?FunctionCallbackWrapper@imp@Nan@@YAXABV?$FunctionCallbackInfo@VValue@v8@@@v8@@@Z 10001370 f   serialport.obj
 0001:00003570       __register_serialport      10004570 f   serialport.obj
 0001:00003bb0       ?int2handle@@YAPAXH@Z      10004bb0 f   serialport_win.obj
 0001:00003fb4       $LN36                      10004fb4     serialport_win.obj
 0001:000066b0       ?load_exe_hook@@YGP6GHXZIPAUDelayLoadInfo@@@Z 100076b0 f   win_delay_load_hook.obj
 0001:00006ce4       ?find_pe_section@@YAPAU_IMAGE_SECTION_HEADER@@QAEI@Z 10007ce4 f   LIBCMT:utility.obj
 0001:00006ffe       ?dllmain_crt_dispatch@@YGHQAUHINSTANCE__@@KQAX@Z 10007ffe f   LIBCMT:dll_dllmain.obj
 0001:00007051       ?dllmain_crt_process_attach@@YAHQAUHINSTANCE__@@QAX@Z 10008051 f   LIBCMT:dll_dllmain.obj
 0001:00007158       ?dllmain_crt_process_detach@@YAH_N@Z 10008158 f   LIBCMT:dll_dllmain.obj
 0001:00007208       ?dllmain_dispatch@@YAHQAUHINSTANCE__@@KQAX@Z 10008208 f   LIBCMT:dll_dllmain.obj
 0001:00007313       ?dllmain_raw@@YGHQAUHINSTANCE__@@KQAX@Z 10008313 f   LIBCMT:dll_dllmain.obj
 0001:00007700       $$000000                   10008700     LIBCMT:sehprolg4.obj
 0001:00007745       ___get_entropy             10008745 f   LIBCMT:gs_support.obj
 0001:00007c40       $$000000                   10008c40     libvcruntime:strstr.obj
 0001:00007c83       strstr_sse_safeloop        10008c83     libvcruntime:strstr.obj
 0001:00007caa       strstr_sse_search          10008caa     libvcruntime:strstr.obj
 0001:00007caa       strstr_sse_unsafe          10008caa     libvcruntime:strstr.obj
 0001:00007cae       strstr_sse_srchloop        10008cae     libvcruntime:strstr.obj
 0001:00007ce4       strstr_sse_srchchar        10008ce4     libvcruntime:strstr.obj
 0001:00007cfb       strstr_sse_cmploop         10008cfb     libvcruntime:strstr.obj
 0001:00007d36       strstr_sse_cmpchars        10008d36     libvcruntime:strstr.obj
 0001:00007d3d       strstr_sse_cmpunsafe       10008d3d     libvcruntime:strstr.obj
 0001:00007d54       strstr_sse_match           10008d54     libvcruntime:strstr.obj
 0001:00007d59       strstr_sse_not_found       10008d59     libvcruntime:strstr.obj
 0001:00007d5b       strstr_sse_exit            10008d5b     libvcruntime:strstr.obj
 0001:00007d5f       strstr_sttni               10008d5f     libvcruntime:strstr.obj
 0001:00007d7b       strstr_sttni_setchars      10008d7b     libvcruntime:strstr.obj
 0001:00007d80       strstr_sttni_setloopchar   10008d80     libvcruntime:strstr.obj
 0001:00007d86       strstr_sttni_setloopnochar 10008d86     libvcruntime:strstr.obj
 0001:00007d9a       strstr_sttni_srchnext      10008d9a     libvcruntime:strstr.obj
 0001:00007d9d       strstr_sttni_srch          10008d9d     libvcruntime:strstr.obj
 0001:00007da1       strstr_sttni_srchloop      10008da1     libvcruntime:strstr.obj
 0001:00007dc0       strstr_sttni_srchxmm       10008dc0     libvcruntime:strstr.obj
 0001:00007dd3       strstr_sttni_srchcheck     10008dd3     libvcruntime:strstr.obj
 0001:00007dd7       strstr_sttni_cmploop       10008dd7     libvcruntime:strstr.obj
 0001:00007e0f       strstr_sttni_cmpchar       10008e0f     libvcruntime:strstr.obj
 0001:00007e2a       strstr_no_sse              10008e2a     libvcruntime:strstr.obj
 0001:00007e3d       findnext                   10008e3d     libvcruntime:strstr.obj
 0001:00007e50       loop_start                 10008e50     libvcruntime:strstr.obj
 0001:00007e55       in_loop                    10008e55     libvcruntime:strstr.obj
 0001:00007e5d       not_found                  10008e5d     libvcruntime:strstr.obj
 0001:00007e63       first_char_found           10008e63     libvcruntime:strstr.obj
 0001:00007e6c       two_first_chars_equal      10008e6c     libvcruntime:strstr.obj
 0001:00007e6f       compare_loop               10008e6f     libvcruntime:strstr.obj
 0001:00007e92       strchr_call                10008e92     libvcruntime:strstr.obj
 0001:00007e9e       match                      10008e9e     libvcruntime:strstr.obj
 0001:00007ea5       empty_str2                 10008ea5     libvcruntime:strstr.obj
 0001:00007ff0       _ValidateLocalCookies      10008ff0 f   libvcruntime:chandler4.obj
 0001:0000823c       ?_FilterSetCurrentException@@YAKPAU_EXCEPTION_POINTERS@@E@Z 1000923c f   libvcruntime:ehhelpers.obj
 0001:00008340       $$000000                   10009340     libvcruntime:memset.obj
 0001:00008385       XMMMov                     10009385     libvcruntime:memset.obj
 0001:000083c0       LargeRangeBytes            100093c0     libvcruntime:memset.obj
 0001:000083fd       XmmMovSmall                100093fd     libvcruntime:memset.obj
 0001:00008410       XmmSmallLoop               10009410     libvcruntime:memset.obj
 0001:00008415       MidRangeBytes              10009415     libvcruntime:memset.obj
 0001:00008431       XMMTrailingBytes           10009431     libvcruntime:memset.obj
 0001:00008445       SmallMov                   10009445     libvcruntime:memset.obj
 0001:0000844d       ByteLoop                   1000944d     libvcruntime:memset.obj
 0001:0000845b       DwordTest                  1000945b     libvcruntime:memset.obj
 0001:0000846b       QwordTest                  1000946b     libvcruntime:memset.obj
 0001:00008480       QwordLoop                  10009480     libvcruntime:memset.obj
 0001:00008493       toend                      10009493     libvcruntime:memset.obj
 0001:00008639       ??$BuildCatchObjectHelperInternal@V__FrameHandler3@@@@YAHPAUEHExceptionRecord@@PAXPBU_s_HandlerType@@PBU_s_CatchableType@@@Z 10009639 f   libvcruntime:frame.obj
 0001:00008777       ??$BuildCatchObjectInternal@V__FrameHandler3@@@@YAXPAUEHExceptionRecord@@PAXPBU_s_HandlerType@@PBU_s_CatchableType@@@Z 10009777 f   libvcruntime:frame.obj
 0001:00008810       ??$CatchIt@V__FrameHandler3@@@@YAXPAUEHExceptionRecord@@PAUEHRegistrationNode@@PAU_CONTEXT@@PAXPBU_s_FuncInfo@@PBU_s_HandlerType@@PBU_s_CatchableType@@PBU_s_TryBlockMapEntry@@H1EE@Z 10009810 f   libvcruntime:frame.obj
 0001:00008890       ??$FindHandler@V__FrameHandler3@@@@YAXPAUEHExceptionRecord@@PAUEHRegistrationNode@@PAU_CONTEXT@@PAXPBU_s_FuncInfo@@EH1@Z 10009890 f   libvcruntime:frame.obj
 0001:00008c3a       ??$FindHandlerForForeignException@V__FrameHandler3@@@@YAXPAUEHExceptionRecord@@PAUEHRegistrationNode@@PAU_CONTEXT@@PAXPBU_s_FuncInfo@@HH1@Z 10009c3a f   libvcruntime:frame.obj
 0001:00008f52       ?CallCatchBlock@@YAPAXPAUEHExceptionRecord@@PAUEHRegistrationNode@@PAU_CONTEXT@@PBU_s_FuncInfo@@PAXHK@Z 10009f52 f   libvcruntime:frame.obj
 0001:00009116       ?CallUnexpected@@YAXPBU_s_ESTypeList@@@Z 1000a116 f   libvcruntime:frame.obj
 0001:00009136       __catch$?CallUnexpected@@YAXPBU_s_ESTypeList@@@Z$0 1000a136 f   libvcruntime:frame.obj
 0001:00009155       ?ExFilterRethrow@@YAHPAU_EXCEPTION_POINTERS@@@Z 1000a155 f   libvcruntime:frame.obj
 0001:0000929f       ?IsInExceptionSpec@@YAEPAUEHExceptionRecord@@PBU_s_ESTypeList@@@Z 1000a29f f   libvcruntime:frame.obj
 0001:00009370       $$000000                   1000a370     libvcruntime:lowhelpr.obj
 0001:000093af       _NLG_Continue              1000a3af     libvcruntime:lowhelpr.obj
 0001:000093f0       $$000000                   1000a3f0     libvcruntime:strchr.obj
 0001:00009423       strchr_sse_loop            1000a423     libvcruntime:strchr.obj
 0001:00009447       strchr_sse_break           1000a447     libvcruntime:strchr.obj
 0001:00009458       strchr_no_sse2             1000a458     libvcruntime:strchr.obj
 0001:00009470       str_misaligned             1000a470     libvcruntime:strchr.obj
 0001:00009485       main_loop_start            1000a485     libvcruntime:strchr.obj
 0001:00009490       main_loop                  1000a490     libvcruntime:strchr.obj
 0001:000094cc       retnull                    1000a4cc     libvcruntime:strchr.obj
 0001:000094ce       retnull_bx                 1000a4ce     libvcruntime:strchr.obj
 0001:000094d2       found_bx                   1000a4d2     libvcruntime:strchr.obj
 0001:000094d7       chr_is_found               1000a4d7     libvcruntime:strchr.obj
 0001:000094ff       byte_3                     1000a4ff     libvcruntime:strchr.obj
 0001:00009506       byte_2                     1000a506     libvcruntime:strchr.obj
 0001:0000950d       byte_1                     1000a50d     libvcruntime:strchr.obj
 0001:00009514       byte_0                     1000a514     libvcruntime:strchr.obj
 0001:00009590       $$000000                   1000a590     libvcruntime:exsup4.obj
 0001:000095c2       _lu_top                    1000a5c2     libvcruntime:exsup4.obj
 0001:00009621       _lu_done                   1000a621     libvcruntime:exsup4.obj
 0001:00009630       $$000000                   1000a630     libvcruntime:exsup4.obj
 0001:00009630       __unwind_handler4          1000a630 f   libvcruntime:exsup4.obj
 0001:00009680       $$000000                   1000a680     libvcruntime:exsup4.obj
 0001:000096a0       $$000000                   1000a6a0     libvcruntime:exsup4.obj
 0001:000096c0       $$000000                   1000a6c0     libvcruntime:exsup4.obj
 0001:000096d5       ReturnPoint                1000a6d5     libvcruntime:exsup4.obj
 0001:000096e0       $$000000                   1000a6e0     libvcruntime:exsup4.obj
 0001:000096f7       ?try_get_first_available_module@@YAPAUHINSTANCE__@@QBW4module_id@?A0x87e98a64@@0@Z 1000a6f7 f   libvcruntime:winapi_downlevel.obj
 0001:00009791       ?try_get_function@@YAPAXW4function_id@?A0x87e98a64@@QBDQBW4module_id@2@2@Z 1000a791 f   libvcruntime:winapi_downlevel.obj
 0001:00009960       $$000000                   1000a960     libvcruntime:memcpy.obj
 0001:00009960       $$000000                   1000a960     libvcruntime:memmove.obj
 0001:00009980       CopyUp                     1000a980     libvcruntime:memcpy.obj
 0001:00009980       CopyUp                     1000a980     libvcruntime:memmove.obj
 0001:000099a4       CopyUpLargeMov             1000a9a4     libvcruntime:memcpy.obj
 0001:000099a4       CopyUpLargeMov             1000a9a4     libvcruntime:memmove.obj
 0001:000099b7       CopyUpSSE2Check            1000a9b7     libvcruntime:memcpy.obj
 0001:000099b7       CopyUpSSE2Check            1000a9b7     libvcruntime:memmove.obj
 0001:000099d0       AtomChk                    1000a9d0     libvcruntime:memcpy.obj
 0001:000099d0       AtomChk                    1000a9d0     libvcruntime:memmove.obj
 0001:000099f6       PalignHead4                1000a9f6     libvcruntime:memcpy.obj
 0001:000099f6       PalignHead4                1000a9f6     libvcruntime:memmove.obj
 0001:00009a09       PalignHead8                1000aa09     libvcruntime:memcpy.obj
 0001:00009a09       PalignHead8                1000aa09     libvcruntime:memmove.obj
 0001:00009a20       PalignLoop                 1000aa20     libvcruntime:memcpy.obj
 0001:00009a20       PalignLoop                 1000aa20     libvcruntime:memmove.obj
 0001:00009a32       MovPalign12                1000aa32     libvcruntime:memcpy.obj
 0001:00009a32       MovPalign12                1000aa32     libvcruntime:memmove.obj
 0001:00009a3c       PalignLoop12               1000aa3c     libvcruntime:memcpy.obj
 0001:00009a3c       PalignLoop12               1000aa3c     libvcruntime:memmove.obj
 0001:00009a8d       MovPalign8                 1000aa8d     libvcruntime:memcpy.obj
 0001:00009a8d       MovPalign8                 1000aa8d     libvcruntime:memmove.obj
 0001:00009a98       PalignLoop8                1000aa98     libvcruntime:memcpy.obj
 0001:00009a98       PalignLoop8                1000aa98     libvcruntime:memmove.obj
 0001:00009ae6       MovPalign4                 1000aae6     libvcruntime:memcpy.obj
 0001:00009ae6       MovPalign4                 1000aae6     libvcruntime:memmove.obj
 0001:00009af0       PalignLoop4                1000aaf0     libvcruntime:memcpy.obj
 0001:00009af0       PalignLoop4                1000aaf0     libvcruntime:memmove.obj
 0001:00009b3c       PalignTail                 1000ab3c     libvcruntime:memcpy.obj
 0001:00009b3c       PalignTail                 1000ab3c     libvcruntime:memmove.obj
 0001:00009b54       PalignTail4                1000ab54     libvcruntime:memcpy.obj
 0001:00009b54       PalignTail4                1000ab54     libvcruntime:memmove.obj
 0001:00009b67       PalignTail8                1000ab67     libvcruntime:memcpy.obj
 0001:00009b67       PalignTail8                1000ab67     libvcruntime:memmove.obj
 0001:00009b7e       PalignTailLE3              1000ab7e     libvcruntime:memcpy.obj
 0001:00009b7e       PalignTailLE3              1000ab7e     libvcruntime:memmove.obj
 0001:00009b87       Dword_align                1000ab87     libvcruntime:memcpy.obj
 0001:00009b87       Dword_align                1000ab87     libvcruntime:memmove.obj
 0001:00009b8f       Dword_up_align_loop        1000ab8f     libvcruntime:memcpy.obj
 0001:00009b8f       Dword_up_align_loop        1000ab8f     libvcruntime:memmove.obj
 0001:00009ba2       Dword_align_Ok             1000aba2     libvcruntime:memcpy.obj
 0001:00009ba2       Dword_align_Ok             1000aba2     libvcruntime:memmove.obj
 0001:00009bbc       ByteCopyUp                 1000abbc     libvcruntime:memcpy.obj
 0001:00009bbc       ByteCopyUp                 1000abbc     libvcruntime:memmove.obj
 0001:00009bc4       TrailingUpVec              1000abc4     libvcruntime:memcpy.obj
 0001:00009bc4       TrailingUpVec              1000abc4     libvcruntime:memmove.obj
 0001:00009bd4       TrailingUp0                1000abd4     libvcruntime:memcpy.obj
 0001:00009bd4       TrailingUp0                1000abd4     libvcruntime:memmove.obj
 0001:00009bdc       TrailingUp1                1000abdc     libvcruntime:memcpy.obj
 0001:00009bdc       TrailingUp1                1000abdc     libvcruntime:memmove.obj
 0001:00009be8       TrailingUp2                1000abe8     libvcruntime:memcpy.obj
 0001:00009be8       TrailingUp2                1000abe8     libvcruntime:memmove.obj
 0001:00009bfc       TrailingUp3                1000abfc     libvcruntime:memcpy.obj
 0001:00009bfc       TrailingUp3                1000abfc     libvcruntime:memmove.obj
 0001:00009c14       CopyDown                   1000ac14     libvcruntime:memcpy.obj
 0001:00009c14       CopyDown                   1000ac14     libvcruntime:memmove.obj
 0001:00009c39       CopyDownNotAligned         1000ac39     libvcruntime:memcpy.obj
 0001:00009c39       CopyDownNotAligned         1000ac39     libvcruntime:memmove.obj
 0001:00009c40       CopyDownAlignLoop          1000ac40     libvcruntime:memcpy.obj
 0001:00009c40       CopyDownAlignLoop          1000ac40     libvcruntime:memmove.obj
 0001:00009c4d       CopyDownAligned            1000ac4d     libvcruntime:memcpy.obj
 0001:00009c4d       CopyDownAligned            1000ac4d     libvcruntime:memmove.obj
 0001:00009c70       TrailingDownVec            1000ac70     libvcruntime:memcpy.obj
 0001:00009c70       TrailingDownVec            1000ac70     libvcruntime:memmove.obj
 0001:00009c80       TrailingDown0              1000ac80     libvcruntime:memcpy.obj
 0001:00009c80       TrailingDown0              1000ac80     libvcruntime:memmove.obj
 0001:00009c88       TrailingDown1              1000ac88     libvcruntime:memcpy.obj
 0001:00009c88       TrailingDown1              1000ac88     libvcruntime:memmove.obj
 0001:00009c98       TrailingDown2              1000ac98     libvcruntime:memcpy.obj
 0001:00009c98       TrailingDown2              1000ac98     libvcruntime:memmove.obj
 0001:00009cac       TrailingDown3              1000acac     libvcruntime:memcpy.obj
 0001:00009cac       TrailingDown3              1000acac     libvcruntime:memmove.obj
 0001:00009cc5       XmmMovLargeAlignTest       1000acc5     libvcruntime:memcpy.obj
 0001:00009cc5       XmmMovLargeAlignTest       1000acc5     libvcruntime:memmove.obj
 0001:00009ccd       XmmMovAlignLoop            1000accd     libvcruntime:memcpy.obj
 0001:00009ccd       XmmMovAlignLoop            1000accd     libvcruntime:memmove.obj
 0001:00009cdc       XmmMovLargeLoop            1000acdc     libvcruntime:memcpy.obj
 0001:00009cdc       XmmMovLargeLoop            1000acdc     libvcruntime:memmove.obj
 0001:00009d4c       XmmMovSmallTest            1000ad4c     libvcruntime:memcpy.obj
 0001:00009d4c       XmmMovSmallTest            1000ad4c     libvcruntime:memmove.obj
 0001:00009d51       XmmMovSmallLoop            1000ad51     libvcruntime:memcpy.obj
 0001:00009d51       XmmMovSmallLoop            1000ad51     libvcruntime:memmove.obj
 0001:00009d74       CopyDownSmall              1000ad74     libvcruntime:memcpy.obj
 0001:00009d74       CopyDownSmall              1000ad74     libvcruntime:memmove.obj
 0001:00009d7c       CopyDownDwordLoop          1000ad7c     libvcruntime:memcpy.obj
 0001:00009d7c       CopyDownDwordLoop          1000ad7c     libvcruntime:memmove.obj
 0001:00009d91       CopyDownByteTest           1000ad91     libvcruntime:memcpy.obj
 0001:00009d91       CopyDownByteTest           1000ad91     libvcruntime:memmove.obj
 0001:00009d95       CopyDownByteLoop           1000ad95     libvcruntime:memcpy.obj
 0001:00009d95       CopyDownByteLoop           1000ad95     libvcruntime:memmove.obj
 0001:00009da4       CopyDownReturn             1000ada4     libvcruntime:memcpy.obj
 0001:00009da4       CopyDownReturn             1000ada4     libvcruntime:memmove.obj
 0001:00009db0       XmmCopy                    1000adb0     libvcruntime:memcpy.obj
 0001:00009db0       XmmCopy                    1000adb0     libvcruntime:memmove.obj
 0001:00009dbd       XmmCopyAligned             1000adbd     libvcruntime:memcpy.obj
 0001:00009dbd       XmmCopyAligned             1000adbd     libvcruntime:memmove.obj
 0001:00009dd0       XmmCopyLargeLoop           1000add0     libvcruntime:memcpy.obj
 0001:00009dd0       XmmCopyLargeLoop           1000add0     libvcruntime:memmove.obj
 0001:00009e2d       XmmCopySmallTest           1000ae2d     libvcruntime:memcpy.obj
 0001:00009e2d       XmmCopySmallTest           1000ae2d     libvcruntime:memmove.obj
 0001:00009e40       XmmCopySmallLoop           1000ae40     libvcruntime:memcpy.obj
 0001:00009e40       XmmCopySmallLoop           1000ae40     libvcruntime:memmove.obj
 0001:00009e5b       CopyUpDwordMov             1000ae5b     libvcruntime:memcpy.obj
 0001:00009e5b       CopyUpDwordMov             1000ae5b     libvcruntime:memmove.obj
 0001:00009e60       CopyUpDwordTest            1000ae60     libvcruntime:memcpy.obj
 0001:00009e60       CopyUpDwordTest            1000ae60     libvcruntime:memmove.obj
 0001:00009e67       CopyUpDwordLoop            1000ae67     libvcruntime:memcpy.obj
 0001:00009e67       CopyUpDwordLoop            1000ae67     libvcruntime:memmove.obj
 0001:00009e76       CopyUpByteTest             1000ae76     libvcruntime:memcpy.obj
 0001:00009e76       CopyUpByteTest             1000ae76     libvcruntime:memmove.obj
 0001:00009e7d       CopyUpByteLoop             1000ae7d     libvcruntime:memcpy.obj
 0001:00009e7d       CopyUpByteLoop             1000ae7d     libvcruntime:memmove.obj
 0001:00009e90       CopyUpReturn               1000ae90     libvcruntime:memcpy.obj
 0001:00009e90       CopyUpReturn               1000ae90     libvcruntime:memmove.obj
 0001:00009ea0       XmmCopyUnaligned           1000aea0     libvcruntime:memcpy.obj
 0001:00009ea0       XmmCopyUnaligned           1000aea0     libvcruntime:memmove.obj
 0001:00009eb3       XmmAlignByte               1000aeb3     libvcruntime:memcpy.obj
 0001:00009eb3       XmmAlignByte               1000aeb3     libvcruntime:memmove.obj
 0001:00009ebc       XmmAlignDwordTest          1000aebc     libvcruntime:memcpy.obj
 0001:00009ebc       XmmAlignDwordTest          1000aebc     libvcruntime:memmove.obj
 0001:00009ec1       XmmAlignDwordLoop          1000aec1     libvcruntime:memcpy.obj
 0001:00009ec1       XmmAlignDwordLoop          1000aec1     libvcruntime:memmove.obj
 0001:00009ece       XmmAlignAdjustCnt          1000aece     libvcruntime:memcpy.obj
 0001:00009ece       XmmAlignAdjustCnt          1000aece     libvcruntime:memmove.obj
 0001:00009ee0       $$000000                   1000aee0     libvcruntime:exsup.obj
 0001:00009ef0       $$000000                   1000aef0     libvcruntime:exsup.obj
 0001:00009efb       __NLG_Go                   1000aefb     libvcruntime:exsup.obj
 0001:00009f10       $$000000                   1000af10     libvcruntime:exsup.obj
 0001:0000a12d       ??$?RV<lambda_9b2bd5c6bb91c5c032542faa5c3cb611>@@AAV<lambda_be68057ced330f874c40fe9612235e36>@@V<lambda_dbd837d1c0b7fc6e2d81c287c81c071b>@@@?$__crt_seh_guarded_call@H@@QAEH$$QAV<lambda_9b2bd5c6bb91c5c032542faa5c3cb611>@@AAV<lambda_be68057ced330f874c40fe9612235e36>@@$$QAV<lambda_dbd837d1c0b7fc6e2d81c287c81c071b>@@@Z 1000b12d f   libucrt:output.obj
 0001:0000a188       ??$common_vsnprintf_s@D@@YAH_KQADIIQBDQAU__crt_locale_pointers@@1@Z 1000b188 f   libucrt:output.obj
 0001:0000a287       ??$common_vsprintf@Vformat_validation_base@__crt_stdio_output@@D@@YAH_KQADIQBDQAU__crt_locale_pointers@@1@Z 1000b287 f   libucrt:output.obj
 0001:0000a405       ??$common_vsprintf@Vstandard_base@__crt_stdio_output@@D@@YAH_KQADIQBDQAU__crt_locale_pointers@@1@Z 1000b405 f   libucrt:output.obj
 0001:0000a583       ??$common_vsprintf@Vstandard_base@__crt_stdio_output@@_W@@YAH_KQA_WIQB_WQAU__crt_locale_pointers@@QAD@Z 1000b583 f   libucrt:output.obj
 0001:0000ad62       ??R<lambda_be68057ced330f874c40fe9612235e36>@@QBEHXZ 1000bd62 f   libucrt:output.obj
 0001:0000b1b3       $LN48                      1000c1b3     libucrt:output.obj
 0001:0000b2c7       $LN50                      1000c2c7     libucrt:output.obj
 0001:0000b3e3       $LN50                      1000c3e3     libucrt:output.obj
 0001:0000b4ff       $LN50                      1000c4ff     libucrt:output.obj
 0001:0000c2dc       $LN18                      1000d2dc     libucrt:output.obj
 0001:0000c2f0       $LN17                      1000d2f0     libucrt:output.obj
 0001:0000d1d4       ??$common_assert_to_message_box@_W@@YAXQB_W0IQAX@Z 1000e1d4 f   libucrt:assert.obj
 0001:0000d26e       ??$common_assert_to_message_box_build_string@_W@@YAXQA_WIQB_W1IQAX@Z 1000e26e f   libucrt:assert.obj
 0001:0000d74f       ??$common_assert_to_stderr@_W@@YAXQB_W0I@Z 1000e74f f   libucrt:assert.obj
 0001:0000d7fb       ?common_assert_to_stderr_direct@@YAXQB_W0I@Z 1000e7fb f   libucrt:assert.obj
 0001:0000d8aa       ?get_assert_format@@YAPB_W_W@Z 1000e8aa f   libucrt:assert.obj
 0001:0000d967       _memcpy_s                  1000e967 f   libucrt:cfout.obj
 0001:0000d967       _memcpy_s                  1000e967 f   libucrt:mbctype.obj
 0001:0000d967       _memcpy_s                  1000e967 f   libucrt:assert.obj
 0001:0000da11       ??$common_tcsncpy_s@D@@YAHQADIQBDI@Z 1000ea11 f   libucrt:strncpy_s.obj
 0001:0000dad0       $$000000                   1000ead0     libucrt:strncpy.obj
 0001:0000df14       ??$?RV<lambda_03b1d95aef87969028cfba75ccab2455>@@AAV<lambda_6e4b09c48022b2350581041d5f6b0c4c>@@V<lambda_22bdf7517842c4b3e53723af5aa32b9e>@@@?$__crt_seh_guarded_call@X@@QAEX$$QAV<lambda_03b1d95aef87969028cfba75ccab2455>@@AAV<lambda_6e4b09c48022b2350581041d5f6b0c4c>@@$$QAV<lambda_22bdf7517842c4b3e53723af5aa32b9e>@@@Z 1000ef14 f   libucrt:exit.obj
 0001:0000df61       ??R<lambda_6e4b09c48022b2350581041d5f6b0c4c>@@QBE@XZ 1000ef61 f   libucrt:exit.obj
 0001:0000e03b       ?atexit_exception_filter@@YAHK@Z 1000f03b f   libucrt:exit.obj
 0001:0000e04e       ?common_exit@@YAXHW4_crt_exit_cleanup_mode@@W4_crt_exit_return_mode@@@Z 1000f04e f   libucrt:exit.obj
 0001:0000e0b2       ?exit_or_terminate_process@@YAXI@Z 1000f0b2 f   libucrt:exit.obj
 0001:0000e0f4       ?is_managed_app@@YA_NXZ    1000f0f4 f   libucrt:exit.obj
 0001:0000e137       ?try_cor_exit_process@@YAXI@Z 1000f137 f   libucrt:exit.obj
 0001:0000e1c5       ??$common_configure_argv@D@@YAHW4_crt_argv_mode@@@Z 1000f1c5 f   libucrt:argv_parsing.obj
 0001:0000e2fb       ??$parse_command_line@D@@YAXPADPAPAD0PAI2@Z 1000f2fb f   libucrt:argv_parsing.obj
 0001:0000e4c9       ??$common_initialize_environment_nolock@D@@YAHXZ 1000f4c9 f   libucrt:environment_initialization.obj
 0001:0000e51c       ??$create_environment@D@@YAQAPADQAD@Z 1000f51c f   libucrt:environment_initialization.obj
 0001:0000e5ec       ??$free_environment@D@@YAXQAPAD@Z 1000f5ec f   libucrt:environment_initialization.obj
 0001:0000e5ec       ??$free_environment@_W@@YAXQAPA_W@Z 1000f5ec f   libucrt:environment_initialization.obj
 0001:0000e644       ??$uninitialize_environment_internal@D@@YAXAAPAPAD@Z 1000f644 f   libucrt:environment_initialization.obj
 0001:0000e65f       ??$uninitialize_environment_internal@_W@@YAXAAPAPA_W@Z 1000f65f f   libucrt:environment_initialization.obj
 0001:0000e6b6       ??$?RV<lambda_69a2805e680e0e292e8ba93315fe43a8>@@AAV<lambda_f03950bc5685219e0bcd2087efbe011e>@@V<lambda_03fcd07e894ec930e3f35da366ca99d6>@@@?$__crt_seh_guarded_call@H@@QAEH$$QAV<lambda_69a2805e680e0e292e8ba93315fe43a8>@@AAV<lambda_f03950bc5685219e0bcd2087efbe011e>@@$$QAV<lambda_03fcd07e894ec930e3f35da366ca99d6>@@@Z 1000f6b6 f   libucrt:onexit.obj
 0001:0000e711       ??$?RV<lambda_8e746cf0007f6ed984d6f78af1fec997>@@AAV<lambda_22ebabd17bc4fa466a2aca6d8deb888d>@@V<lambda_18ed0c0b38a6dc0daf1e7ac6d6adf05e>@@@?$__crt_seh_guarded_call@H@@QAEH$$QAV<lambda_8e746cf0007f6ed984d6f78af1fec997>@@AAV<lambda_22ebabd17bc4fa466a2aca6d8deb888d>@@$$QAV<lambda_18ed0c0b38a6dc0daf1e7ac6d6adf05e>@@@Z 1000f711 f   libucrt:onexit.obj
 0001:0000e78b       ??R<lambda_22ebabd17bc4fa466a2aca6d8deb888d>@@QBEHXZ 1000f78b f   libucrt:onexit.obj
 0001:0000e8b4       ??R<lambda_f03950bc5685219e0bcd2087efbe011e>@@QBEHXZ 1000f8b4 f   libucrt:onexit.obj
 0001:0000ea2d       _initialize_global_variables 1000fa2d f   libucrt:initialization.obj
 0001:0000ea3a       _initialize_c              1000fa3a f   libucrt:initialization.obj
 0001:0000ea54       _initialize_environment    1000fa54 f   libucrt:initialization.obj
 0001:0000ea54       _initialize_global_state_isolation 1000fa54 f   libucrt:initialization.obj
 0001:0000ea54       _report_memory_leaks       1000fa54 f   libucrt:initialization.obj
 0001:0000ea54       _uninitialize_c            1000fa54 f   libucrt:initialization.obj
 0001:0000ea54       _uninitialize_global_state_isolation 1000fa54 f   libucrt:initialization.obj
 0001:0000ea57       _uninitialize_environment  1000fa57 f   libucrt:initialization.obj
 0001:0000ea5f       _initialize_pointers       1000fa5f f   libucrt:initialization.obj
 0001:0000ea8d       _uninitialize_vcruntime    1000fa8d f   libucrt:initialization.obj
 0001:0000ea96       _uninitialize_allocated_memory 1000fa96 f   libucrt:initialization.obj
 0001:0000eaad       _uninitialize_allocated_io_buffers 1000faad f   libucrt:initialization.obj
 0001:0000eafd       ??R<lambda_af42a3ee9806e9a7305d451646e05244>@@QBEXAAPAU__crt_multibyte_data@@@Z 1000fafd f   libucrt:initialization.obj
 0001:0000edcb       ?_strlwr_s_l_stat@@YAHQADIQAU__crt_locale_pointers@@@Z 1000fdcb f   libucrt:strlwr.obj
 0001:0000f9a0       $$000000                   100109a0     libucrt:strncmp.obj
 0001:0000fa52       ??$?RV<lambda_15ade71b0218206bbe3333a0c9b79046>@@AAV<lambda_da44e0f8b0f19ba52fefafb335991732>@@V<lambda_207f2d024fc103971653565357d6cd41>@@@?$__crt_seh_guarded_call@X@@QAEX$$QAV<lambda_15ade71b0218206bbe3333a0c9b79046>@@AAV<lambda_da44e0f8b0f19ba52fefafb335991732>@@$$QAV<lambda_207f2d024fc103971653565357d6cd41>@@@Z 10010a52 f   libucrt:per_thread_data.obj
 0001:0000faa4       ??$?RV<lambda_38edbb1296d33220d7e4dd0ed76b244a>@@AAV<lambda_5ce1d447e08cb34b2473517608e21441>@@V<lambda_fb385d3da700c9147fc39e65dd577a8c>@@@?$__crt_seh_guarded_call@X@@QAEX$$QAV<lambda_38edbb1296d33220d7e4dd0ed76b244a>@@AAV<lambda_5ce1d447e08cb34b2473517608e21441>@@$$QAV<lambda_fb385d3da700c9147fc39e65dd577a8c>@@@Z 10010aa4 f   libucrt:per_thread_data.obj
 0001:0000fb0f       ??$?RV<lambda_6affb1475c98b40b75cdec977db92e3c>@@AAV<lambda_b8d4b9c228a6ecc3f80208dbb4b4a104>@@V<lambda_608742c3c92a14382c1684fc64f96c88>@@@?$__crt_seh_guarded_call@X@@QAEX$$QAV<lambda_6affb1475c98b40b75cdec977db92e3c>@@AAV<lambda_b8d4b9c228a6ecc3f80208dbb4b4a104>@@$$QAV<lambda_608742c3c92a14382c1684fc64f96c88>@@@Z 10010b0f f   libucrt:per_thread_data.obj
 0001:0000fb64       ??$?RV<lambda_a7e850c220f1c8d1e6efeecdedd162c6>@@AAV<lambda_46720907175c18b6c9d2717bc0d2d362>@@V<lambda_9048902d66e8d99359bc9897bbb930a8>@@@?$__crt_seh_guarded_call@X@@QAEX$$QAV<lambda_a7e850c220f1c8d1e6efeecdedd162c6>@@AAV<lambda_46720907175c18b6c9d2717bc0d2d362>@@$$QAV<lambda_9048902d66e8d99359bc9897bbb930a8>@@@Z 10010b64 f   libucrt:per_thread_data.obj
 0001:0000fbbe       ?construct_ptd@@YAXQAU__acrt_ptd@@QAPAU__crt_locale_data@@@Z 10010bbe f   libucrt:per_thread_data.obj
 0001:0000fc57       ?destroy_fls@@YGXPAX@Z     10010c57 f   libucrt:per_thread_data.obj
 0001:0000fc78       ?destroy_ptd@@YAXQAU__acrt_ptd@@@Z 10010c78 f   libucrt:per_thread_data.obj
 0001:0000fd45       ?replace_current_thread_locale_nolock@@YAXQAU__acrt_ptd@@QAU__crt_locale_data@@@Z 10010d45 f   libucrt:per_thread_data.obj
 0001:000107f3       ?fe_to_nearest@@YA_NQBN_KF@Z 100117f3 f   libucrt:cvt.obj
 0001:00010896       ?fp_format_a@@YAHQBNPADIQADIH_NIQAU__crt_locale_pointers@@W4__acrt_rounding_mode@@@Z 10011896 f   libucrt:cvt.obj
 0001:00010ba5       ?fp_format_e@@YAHQBNQADI1IH_NIQAU__crt_locale_pointers@@W4__acrt_rounding_mode@@@Z 10011ba5 f   libucrt:cvt.obj
 0001:00010c4d       ?fp_format_e_internal@@YAHQADIH_NIQAU_strflt@@1QAU__crt_locale_pointers@@@Z 10011c4d f   libucrt:cvt.obj
 0001:00010d95       ?fp_format_f@@YAHQBNQADI1IHQAU__crt_locale_pointers@@W4__acrt_rounding_mode@@@Z 10011d95 f   libucrt:cvt.obj
 0001:00010e26       ?fp_format_f_internal@@YAHQADIHQAU_strflt@@_NQAU__crt_locale_pointers@@@Z 10011e26 f   libucrt:cvt.obj
 0001:00010f1e       ?fp_format_g@@YAHQBNQADI1IH_NIW4__acrt_rounding_mode@@QAU__crt_locale_pointers@@@Z 10011f1e f   libucrt:cvt.obj
 0001:00010fe8       ?fp_format_nan_or_infinity@@YAHW4__acrt_fp_class@@_NPADI1@Z 10011fe8 f   libucrt:cvt.obj
 0001:0001107d       ?shift_bytes@@YAXQADI0H@Z  1001207d f   libucrt:cvt.obj
 0001:000110b1       ?should_round_up@@YA_NQBN_KFW4__acrt_rounding_mode@@@Z 100120b1 f   libucrt:cvt.obj
 0001:000112a0       ?fputwc_binary_nolock@@YAG_WV__crt_stdio_stream@@@Z 100122a0 f   libucrt:fputwc.obj
 0001:000116cb       ??$?RV<lambda_e5124f882df8998aaf41531e079ba474>@@AAV<lambda_3e16ef9562a7dcce91392c22ab16ea36>@@V<lambda_e25ca0880e6ef98be67edffd8c599615>@@@?$__crt_seh_guarded_call@X@@QAEX$$QAV<lambda_e5124f882df8998aaf41531e079ba474>@@AAV<lambda_3e16ef9562a7dcce91392c22ab16ea36>@@$$QAV<lambda_e25ca0880e6ef98be67edffd8c599615>@@@Z 100126cb f   libucrt:wsetlocale.obj
 0001:0001176b       ?initialize_inherited_file_handles_nolock@@YAXXZ 1001276b f   libucrt:ioinit.obj
 0001:00011821       ?initialize_stdio_handles_nolock@@YAXXZ 10012821 f   libucrt:ioinit.obj
 0001:00011967       ??$common_xtox@K_W@@YAHKQA_WII_N@Z 10012967 f   libucrt:xtoa.obj
 0001:00011a1a       ??$common_xtox_s@K_W@@YAHKQA_WII_N@Z 10012a1a f   libucrt:xtoa.obj
 0001:00011bd7       ??$common_tcsncat_s@_W@@YAHQA_WIQB_WI@Z 10012bd7 f   libucrt:wcsncat_s.obj
 0001:00011cc9       ??$__acrt_convert_wcs_mbs_cp@_WDV<lambda_0fec1a7b3f42a53036604e18c2d5e07e>@@U__crt_win32_buffer_no_resizing@@@@YAHQB_WAAV?$__crt_win32_buffer@DU__crt_win32_buffer_no_resizing@@@@ABV<lambda_0fec1a7b3f42a53036604e18c2d5e07e>@@I@Z 10012cc9 f   libucrt:getmodulefilenamea.obj
 0001:00011eab       ??$common_show_message_box@_W@@YAHQB_W0I@Z 10012eab f   libucrt:crtmbox.obj
 0001:00011f34       ??$?RV<lambda_2866be3712abc81a800a822484c830d8>@@AAV<lambda_39ca0ed439415581b5b15c265174cece>@@V<lambda_2b24c74d71094a6cd0cb82e44167d71b>@@@?$__crt_seh_guarded_call@X@@QAEX$$QAV<lambda_2866be3712abc81a800a822484c830d8>@@AAV<lambda_39ca0ed439415581b5b15c265174cece>@@$$QAV<lambda_2b24c74d71094a6cd0cb82e44167d71b>@@@Z 10012f34 f   libucrt:fflush.obj
 0001:00011fc0       ??$?RV<lambda_2cc53f568c5a2bb6f192f930a45d44ea>@@AAV<lambda_ab61a845afdef5b7c387490eaf3616ee>@@V<lambda_c2ffc0b7726aa6be21d5f0026187e748>@@@?$__crt_seh_guarded_call@X@@QAEX$$QAV<lambda_2cc53f568c5a2bb6f192f930a45d44ea>@@AAV<lambda_ab61a845afdef5b7c387490eaf3616ee>@@$$QAV<lambda_c2ffc0b7726aa6be21d5f0026187e748>@@@Z 10012fc0 f   libucrt:fflush.obj
 0001:0001206c       ??$?RV<lambda_6d20deecaf4856105ebacbad442d1079>@@AAV<lambda_9a32fed5bf61b6b509b2d3f6003082a1>@@V<lambda_63ea2239ed67c638ddbae41947fdf875>@@@?$__crt_seh_guarded_call@H@@QAEH$$QAV<lambda_6d20deecaf4856105ebacbad442d1079>@@AAV<lambda_9a32fed5bf61b6b509b2d3f6003082a1>@@$$QAV<lambda_63ea2239ed67c638ddbae41947fdf875>@@@Z 1001306c f   libucrt:fflush.obj
 0001:000120cc       ?common_flush_all@@YAH_N@Z 100130cc f   libucrt:fflush.obj
 0001:00012119       ?common_flush_all_should_try_to_flush_stream@@YA_NV__crt_stdio_stream@@QAH@Z 10013119 f   libucrt:fflush.obj
 0001:0001214c       ?is_stream_flushable_or_commitable@@YA_NJ@Z 1001314c f   libucrt:fflush.obj
 0001:0001227c       ??$?RV<lambda_b4242a90177f71b82d5a351515ac407a>@@AAV<lambda_b4f66040be5f354a654fb75160c27bfc>@@V<lambda_414c89348e1c610e2dbd648c5fde2086>@@@?$__crt_seh_guarded_call@H@@QAEH$$QAV<lambda_b4242a90177f71b82d5a351515ac407a>@@AAV<lambda_b4f66040be5f354a654fb75160c27bfc>@@$$QAV<lambda_414c89348e1c610e2dbd648c5fde2086>@@@Z 1001327c f   libucrt:setvbuf.obj
 0001:000122d7       ??R<lambda_b4f66040be5f354a654fb75160c27bfc>@@QBEHXZ 100132d7 f   libucrt:setvbuf.obj
 0001:00012374       ?set_buffer@@YAHV__crt_stdio_stream@@QADIH@Z 10013374 f   libucrt:setvbuf.obj
 0001:00012429       ??$?RV<lambda_cbab9ec6f41b0180b23cc171c22676b0>@@AAV<lambda_44731a7d0e6d81c3e6aa82d741081786>@@V<lambda_4b292cb8dd18144e164572427af410ab>@@@?$__crt_seh_guarded_call@P6AXH@Z@@QAEP6AXH@Z$$QAV<lambda_cbab9ec6f41b0180b23cc171c22676b0>@@AAV<lambda_44731a7d0e6d81c3e6aa82d741081786>@@$$QAV<lambda_4b292cb8dd18144e164572427af410ab>@@@Z 10013429 f   libucrt:signal.obj
 0001:0001248d       ?get_global_action_nolock@@YAPAP6AXH@ZH@Z 1001348d f   libucrt:signal.obj
 0001:000124cf       ?siglookup@@YAPAU__crt_signal_action_t@@HQAU1@@Z 100134cf f   libucrt:signal.obj
 0001:000128fd       ?<lambda_invoker_cdecl>@<lambda_838c7f62c73c983481e27c09e84b0b5d>@@CAHPBX0@Z 100138fd f   libucrt:argv_wildcards.obj
 0001:00012915       ??$__acrt_convert_wcs_mbs_cp@D_WV<lambda_62f6974d9771e494a5ea317cc32e971c>@@U__crt_win32_buffer_internal_dynamic_resizing@@@@YAHQBDAAV?$__crt_win32_buffer@_WU__crt_win32_buffer_internal_dynamic_resizing@@@@ABV<lambda_62f6974d9771e494a5ea317cc32e971c>@@I@Z 10013915 f   libucrt:argv_wildcards.obj
 0001:000129c7       ??$__acrt_convert_wcs_mbs_cp@_WDV<lambda_28bda7af82a03b66c1cb3803a755f95d>@@U__crt_win32_buffer_internal_dynamic_resizing@@@@YAHQB_WAAV?$__crt_win32_buffer@DU__crt_win32_buffer_internal_dynamic_resizing@@@@ABV<lambda_28bda7af82a03b66c1cb3803a755f95d>@@I@Z 100139c7 f   libucrt:argv_wildcards.obj
 0001:00012ab3       ??$common_expand_argv_wildcards@D@@YAHQAPADQAPAPAD@Z 10013ab3 f   libucrt:argv_wildcards.obj
 0001:00012ca2       ??$copy_and_add_argument_to_buffer@D@@YAHQBD0IAAV?$argument_list@D@?A0x5f5c8891@@@Z 10013ca2 f   libucrt:argv_wildcards.obj
 0001:00012d53       ??$expand_argument_wildcards@D@@YAHQAD0AAV?$argument_list@D@?A0x5f5c8891@@@Z 10013d53 f   libucrt:argv_wildcards.obj
 0001:0001305e       ?expand_if_necessary@?$argument_list@D@?A0x5f5c8891@@AAEHXZ 1001405e f   libucrt:argv_wildcards.obj
 0001:000130f0       ??$?RV<lambda_ceb1ee4838e85a9d631eb091e2fbe199>@@AAV<lambda_ae742caa10f662c28703da3d2ea5e57e>@@V<lambda_cd08b5d6af4937fe54fc07d0c9bf6b37>@@@?$__crt_seh_guarded_call@X@@QAEX$$QAV<lambda_ceb1ee4838e85a9d631eb091e2fbe199>@@AAV<lambda_ae742caa10f662c28703da3d2ea5e57e>@@$$QAV<lambda_cd08b5d6af4937fe54fc07d0c9bf6b37>@@@Z 100140f0 f   libucrt:mbctype.obj
 0001:0001313d       ??R<lambda_ae742caa10f662c28703da3d2ea5e57e>@@QBEXXZ 1001413d f   libucrt:mbctype.obj
 0001:000131c0       ?CPtoLocaleName@@YAPB_WH@Z 100141c0 f   libucrt:mbctype.obj
 0001:000131fe       ?getSystemCP@@YAHH@Z       100141fe f   libucrt:mbctype.obj
 0001:0001326f       ?setSBCS@@YAXPAU__crt_multibyte_data@@@Z 1001426f f   libucrt:mbctype.obj
 0001:000132d4       ?setSBUpLow@@YAXPAU__crt_multibyte_data@@@Z 100142d4 f   libucrt:mbctype.obj
 0001:00013454       ?setmbcp_internal@@YAHH_NQAU__acrt_ptd@@QAPAU__crt_multibyte_data@@@Z 10014454 f   libucrt:mbctype.obj
 0001:00013568       ?update_thread_multibyte_data_internal@@YAPAU__crt_multibyte_data@@QAU__acrt_ptd@@QAPAU1@@Z 10014568 f   libucrt:mbctype.obj
 0001:00013856       ?x_ismbbtype_l@@YAHPAU__crt_locale_pointers@@IHH@Z 10014856 f   libucrt:ismbbyte.obj
 0001:00013a11       ?find_end_of_double_null_terminated_sequence@@YAPB_WQB_W@Z 10014a11 f   libucrt:get_environment_from_os.obj
 0001:00013b39       ?try_get_AreFileApisANSI@@YAP6GHXZXZ 10014b39 f   libucrt:winapi_thunks.obj
 0001:00013b53       ?try_get_LCMapStringEx@@YAP6GHPB_WK0HPA_WHPAU_nlsversioninfo@@PAXJ@ZXZ 10014b53 f   libucrt:winapi_thunks.obj
 0001:00013b6d       ?try_get_LocaleNameToLCID@@YAP6GKPB_WK@ZXZ 10014b6d f   libucrt:winapi_thunks.obj
 0001:00013b87       ?try_get_MessageBoxA@@YAP6GHPAUHWND__@@PBD1I@ZXZ 10014b87 f   libucrt:winapi_thunks.obj
 0001:00013ba1       ?try_get_MessageBoxW@@YAP6GHPAUHWND__@@PB_W1I@ZXZ 10014ba1 f   libucrt:winapi_thunks.obj
 0001:00013bbb       ?try_get_first_available_module@@YAPAUHINSTANCE__@@QBW4module_id@?A0x391cf84c@@0@Z 10014bbb f   libucrt:winapi_thunks.obj
 0001:00013c82       ?try_get_function@@YAPAXW4function_id@?A0x391cf84c@@QBDQBW4module_id@2@2@Z 10014c82 f   libucrt:winapi_thunks.obj
 0001:00014290       $$000000                   10015290     libucrt:_strnicm.obj
 0001:000142f1       ?__acrt_LCMapStringA_stat@@YAHPAU__crt_locale_pointers@@PB_WKPBDHPADHHH@Z 100152f1 f   libucrt:lcmapstringa.obj
 0001:00014a57       ??R<lambda_3d301b9e52f5099be73030e1f0bf487e>@@QBEIPBD@Z 10015a57 f   libucrt:mbrtowc.obj
 0001:00014c88       ?should_round_up@@YA_NQBDHW4__acrt_has_trailing_digits@@W4__acrt_rounding_mode@@@Z 10015c88 f   libucrt:_fptostr.obj
 0001:0001678c       ??$common_flush_and_write_nolock@D@@YAHHV__crt_stdio_stream@@@Z 1001778c f   libucrt:_flsbuf.obj
 0001:0001687c       ??$common_flush_and_write_nolock@_W@@YAHHV__crt_stdio_stream@@@Z 1001787c f   libucrt:_flsbuf.obj
 0001:00016970       ??$write_buffer_nolock@D@@YA_NDV__crt_stdio_stream@@@Z 10017970 f   libucrt:_flsbuf.obj
 0001:00016a3c       ??$write_buffer_nolock@_W@@YA_N_WV__crt_stdio_stream@@@Z 10017a3c f   libucrt:_flsbuf.obj
 0001:00016b0a       ?stream_is_at_end_of_file_nolock@@YA_NV__crt_stdio_stream@@@Z 10017b0a f   libucrt:_flsbuf.obj
 0001:00016e4d       ?free_crt_array_internal@@YAXQAPBXI@Z 10017e4d f   libucrt:inittime.obj
 0001:000172fb       ??$?RV<lambda_9e9de3de5fa147e2223d7db92bc10aa6>@@AAV<lambda_38ce7e780aa69e748d6df282ebc68efe>@@V<lambda_8ca6da459f0f6780f1cff60fdc3d00e5>@@@?$__crt_seh_guarded_call@H@@QAEH$$QAV<lambda_9e9de3de5fa147e2223d7db92bc10aa6>@@AAV<lambda_38ce7e780aa69e748d6df282ebc68efe>@@$$QAV<lambda_8ca6da459f0f6780f1cff60fdc3d00e5>@@@Z 100182fb f   libucrt:commit.obj
 0001:0001741a       ?write_double_translated_ansi_nolock@@YA?AUwrite_result@?A0x17268360@@HQBDI@Z 1001841a f   libucrt:write.obj
 0001:000177c6       ?write_double_translated_unicode_nolock@@YA?AUwrite_result@?A0x17268360@@QBDI@Z 100187c6 f   libucrt:write.obj
 0001:0001782e       ?write_requires_double_translation_nolock@@YA_NH@Z 1001882e f   libucrt:write.obj
 0001:0001789f       ?write_text_ansi_nolock@@YA?AUwrite_result@?A0x17268360@@HQBDI@Z 1001889f f   libucrt:write.obj
 0001:0001797a       ?write_text_utf16le_nolock@@YA?AUwrite_result@?A0x17268360@@HQBDI@Z 1001897a f   libucrt:write.obj
 0001:00017a63       ?write_text_utf8_nolock@@YA?AUwrite_result@?A0x17268360@@HQBDI@Z 10018a63 f   libucrt:write.obj
 0001:00018360       $$000000                   10019360     libucrt:strpbrk.obj
 0001:00018444       ?initialize_multibyte@@YAHXZ 10019444 f   libucrt:multibyte_initializer.obj
 0001:000184ef       ?GetTableIndexFromLocaleName@@YAHPB_W@Z 100194ef f   libucrt:lcidtoname_downlevel.obj
 0001:00018860       $$000000                   10019860     libucrt:log10_impl.obj
 0001:00018970       $$000000                   10019970     libucrt:ceil_pentium4.obj
 0001:00018a8d       ?to_abstract_control@@YA?AW4__acrt_fenv_abstract_control@@W4__acrt_fenv_machine_sse_control@@@Z 10019a8d f   libucrt:_fenvutils.obj
 0001:00018b49       ?to_abstract_control@@YA?AW4__acrt_fenv_abstract_control@@W4__acrt_fenv_machine_x87_control@@@Z 10019b49 f   libucrt:_fenvutils.obj
 0001:00018c02       ?to_machine_sse_control@@YA?AW4__acrt_fenv_machine_sse_control@@W4__acrt_fenv_abstract_control@@@Z 10019c02 f   libucrt:_fenvutils.obj
 0001:00018ccf       ?to_machine_x87_control@@YA?AW4__acrt_fenv_machine_x87_control@@W4__acrt_fenv_abstract_control@@@Z 10019ccf f   libucrt:_fenvutils.obj
 0001:00019063       ??$common_lseek@_J@@YA_JH_JH@Z 1001a063 f   libucrt:lseek.obj
 0001:0001916f       ??$common_lseek_nolock@_J@@YA_JH_JH@Z 1001a16f f   libucrt:lseek.obj
 0001:000193f9       ___hw_cw_sse2              1001a3f9 f   libucrt:ieee87.obj
 0001:0001987f       __hw_cw                    1001a87f f   libucrt:ieee87.obj
 0001:00019930       $$000000                   1001a930     libucrt:log10_pentium4.obj
 0001:00019bc0       $$000000                   1001abc0     libucrt:87tran.obj
 0001:00019dd0       $$000000                   1001add0     libucrt:87disp.obj
 0001:0001a030       $$000000                   1001b030     libucrt:common.obj
 0001:0001a1c0       $$000000                   1001b1c0     libucrt:genexcep.obj
 0001:0001a4bc       ??$?RV<lambda_218ce3db14220d0be481dae8ef3383b6>@@AAV<lambda_628dfdc04ba53c8bfc02c9951375f3f5>@@V<lambda_57dc472bd5c9d5f3b2cbca59b8a843ae>@@@?$__crt_seh_guarded_call@H@@QAEH$$QAV<lambda_218ce3db14220d0be481dae8ef3383b6>@@AAV<lambda_628dfdc04ba53c8bfc02c9951375f3f5>@@$$QAV<lambda_57dc472bd5c9d5f3b2cbca59b8a843ae>@@@Z 1001b4bc f   libucrt:close.obj
 0001:0001a6ac       ?__dcrt_lowio_initialize_console_output@@YAXXZ 1001b6ac f   libucrt:initcon.obj
 0001:0001ba90       $$000000                   1001ca90     LIBCMT:ulldvrm.obj
 0001:0001bac1       L1                         1001cac1     LIBCMT:ulldvrm.obj
 0001:0001bacf       L3                         1001cacf     LIBCMT:ulldvrm.obj
 0001:0001bafd       L4                         1001cafd     LIBCMT:ulldvrm.obj
 0001:0001bb06       L5                         1001cb06     LIBCMT:ulldvrm.obj
 0001:0001bb08       L2                         1001cb08     LIBCMT:ulldvrm.obj
 0001:0001bb30       $$000000                   1001cb30     LIBCMT:alloca16.obj
 0001:0001bb46       alloca_8                   1001cb46     LIBCMT:alloca16.obj
 0001:0001bb60       $$000000                   1001cb60     LIBCMT:llmul.obj
 0001:0001bb79       hard                       1001cb79     LIBCMT:llmul.obj
 0001:0001bba0       $$000000                   1001cba0     LIBCMT:lldvrm.obj
 0001:0001bbc4       L1                         1001cbc4     LIBCMT:lldvrm.obj
 0001:0001bbe0       L2                         1001cbe0     LIBCMT:lldvrm.obj
 0001:0001bc0c       L3                         1001cc0c     LIBCMT:lldvrm.obj
 0001:0001bc1a       L5                         1001cc1a     LIBCMT:lldvrm.obj
 0001:0001bc48       L6                         1001cc48     LIBCMT:lldvrm.obj
 0001:0001bc51       L7                         1001cc51     LIBCMT:lldvrm.obj
 0001:0001bc53       L4                         1001cc53     LIBCMT:lldvrm.obj
 0001:0001bc65       L9                         1001cc65     LIBCMT:lldvrm.obj
 0001:0001bc79       L8                         1001cc79     LIBCMT:lldvrm.obj
 0001:0001bc80       $$000000                   1001cc80     LIBCMT:llshl.obj
 0001:0001bc90       MORE32                     1001cc90     LIBCMT:llshl.obj
 0001:0001bc9a       RETZERO                    1001cc9a     LIBCMT:llshl.obj
 0001:0001bca0       $$000000                   1001cca0     LIBCMT:ullshr.obj
 0001:0001bcb0       MORE32                     1001ccb0     LIBCMT:ullshr.obj
 0001:0001bcba       RETZERO                    1001ccba     LIBCMT:ullshr.obj
 0001:0001bcc0       $$000000                   1001ccc0     LIBCMT:ftol2.obj
 0001:0001bcd0       $$000000                   1001ccd0     LIBCMT:ftol2.obj
 0001:0001bce1       L3B                        1001cce1     LIBCMT:ftol2.obj
 0001:0001bd24       L3F                        1001cd24     LIBCMT:ftol2.obj
 0001:0001bd2c       L40                        1001cd2c     LIBCMT:ftol2.obj
 0001:0001bd3f       L41                        1001cd3f     LIBCMT:ftol2.obj
 0001:0001bd50       $$000000                   1001cd50     LIBCMT:chkstk.obj
 0001:0001bd64       cs10                       1001cd64     LIBCMT:chkstk.obj
 0001:0001bd72       cs20                       1001cd72     LIBCMT:chkstk.obj
 0001:0001bd80       $$000000                   1001cd80     libvcruntime:strrchr.obj
 0001:0001bdbd       strrchr_sse_loop           1001cdbd     libvcruntime:strrchr.obj
 0001:0001bded       strrchr_sse_break          1001cded     libvcruntime:strrchr.obj
 0001:0001be0d       strrchr_sttni              1001ce0d     libvcruntime:strrchr.obj
 0001:0001be1f       strrchr_sttni_chars        1001ce1f     libvcruntime:strrchr.obj
 0001:0001be34       strrchr_sttni_aligned      1001ce34     libvcruntime:strrchr.obj
 0001:0001be38       strrchr_sttni_xmm          1001ce38     libvcruntime:strrchr.obj
 0001:0001be4b       exit                       1001ce4b     libvcruntime:strrchr.obj
 0001:0001be4e       strrchr_zero               1001ce4e     libvcruntime:strrchr.obj
 0001:0001be73       strchr_zero_loop           1001ce73     libvcruntime:strrchr.obj
 0001:0001be87       strchr_zero_result         1001ce87     libvcruntime:strrchr.obj
 0001:0001be8e       strrchr_no_sse             1001ce8e     libvcruntime:strrchr.obj
 0001:0001beb1       returndi                   1001ceb1     libvcruntime:strrchr.obj
 0001:0001beb3       toend                      1001ceb3     libvcruntime:strrchr.obj
 0001:0001bf30       __unwindfunclet$??1bad_alloc@stdext@@UAE@XZ$0 1001cf30 f   serialport.obj
 0001:0001bf3d       __ehhandler$??1bad_alloc@stdext@@UAE@XZ 1001cf3d f   serialport.obj
 0001:0001bf60       __unwindfunclet$??_Gbad_alloc@stdext@@UAEPAXI@Z$0 1001cf60 f   serialport.obj
 0001:0001bf6d       __ehhandler$??_Gbad_alloc@stdext@@UAEPAXI@Z 1001cf6d f   serialport.obj
 0001:0001bf90       __unwindfunclet$??0bad_array_new_length@stdext@@QAE@XZ$1 1001cf90 f   serialport.obj
 0001:0001bf98       __unwindfunclet$??0bad_array_new_length@stdext@@QAE@XZ$0 1001cf98 f   serialport.obj
 0001:0001bfa5       __ehhandler$??0bad_array_new_length@stdext@@QAE@XZ 1001cfa5 f   serialport.obj
 0001:0001bfd0       __unwindfunclet$??_Gbad_array_new_length@stdext@@UAEPAXI@Z$0 1001cfd0 f   serialport.obj
 0001:0001bfd8       __unwindfunclet$??_Gbad_array_new_length@stdext@@UAEPAXI@Z$1 1001cfd8 f   serialport.obj
 0001:0001bfe5       __ehhandler$??_Gbad_array_new_length@stdext@@UAEPAXI@Z 1001cfe5 f   serialport.obj
 0001:0001c010       __unwindfunclet$??1bad_array_new_length@stdext@@UAE@XZ$0 1001d010 f   serialport.obj
 0001:0001c018       __unwindfunclet$??1bad_array_new_length@stdext@@UAE@XZ$1 1001d018 f   serialport.obj
 0001:0001c025       __ehhandler$??1bad_array_new_length@stdext@@UAE@XZ 1001d025 f   serialport.obj
 0001:0001c050       __unwindfunclet$?_Throw_bad_array_new_length@std@@YAXXZ$0 1001d050 f   serialport.obj
 0001:0001c05d       __ehhandler$?_Throw_bad_array_new_length@std@@YAXXZ 1001d05d f   serialport.obj
 0001:0001c080       __unwindfunclet$?New@?$Factory@VFunctionTemplate@v8@@@imp@Nan@@SA?AV?$Local@VFunctionTemplate@v8@@@v8@@P6AXABV?$FunctionCallbackInfo@VValue@v8@@@3@@ZV?$Local@VValue@v8@@@5@V?$Local@VSignature@v8@@@5@@Z$0 1001d080 f   serialport.obj
 0001:0001c089       __unwindfunclet$?New@?$Factory@VFunctionTemplate@v8@@@imp@Nan@@SA?AV?$Local@VFunctionTemplate@v8@@@v8@@P6AXABV?$FunctionCallbackInfo@VValue@v8@@@3@@ZV?$Local@VValue@v8@@@5@V?$Local@VSignature@v8@@@5@@Z$1 1001d089 f   serialport.obj
 0001:0001c092       __unwindfunclet$?New@?$Factory@VFunctionTemplate@v8@@@imp@Nan@@SA?AV?$Local@VFunctionTemplate@v8@@@v8@@P6AXABV?$FunctionCallbackInfo@VValue@v8@@@3@@ZV?$Local@VValue@v8@@@5@V?$Local@VSignature@v8@@@5@@Z$2 1001d092 f   serialport.obj
 0001:0001c09b       __unwindfunclet$?New@?$Factory@VFunctionTemplate@v8@@@imp@Nan@@SA?AV?$Local@VFunctionTemplate@v8@@@v8@@P6AXABV?$FunctionCallbackInfo@VValue@v8@@@3@@ZV?$Local@VValue@v8@@@5@V?$Local@VSignature@v8@@@5@@Z$3 1001d09b f   serialport.obj
 0001:0001c0a9       __ehhandler$?New@?$Factory@VFunctionTemplate@v8@@@imp@Nan@@SA?AV?$Local@VFunctionTemplate@v8@@@v8@@P6AXABV?$FunctionCallbackInfo@VValue@v8@@@3@@ZV?$Local@VValue@v8@@@5@V?$Local@VSignature@v8@@@5@@Z 1001d0a9 f   serialport.obj
 0001:0001c0d0       __ehhandler$??1?$basic_string@DU?$char_traits@D@std@@V?$allocator@D@2@@std@@QAE@XZ 1001d0d0 f   serialport.obj
 0001:0001c0d0       __ehhandler$??1AsyncResource@Nan@@QAE@XZ 1001d0d0 f   serialport.obj
 0001:0001c0f0       __unwindfunclet$??1EscapableHandleScope@Nan@@QAE@XZ$0 1001d0f0 f   serialport.obj
 0001:0001c0f9       __unwindfunclet$??1EscapableHandleScope@Nan@@QAE@XZ$1 1001d0f9 f   serialport.obj
 0001:0001c107       __ehhandler$??1EscapableHandleScope@Nan@@QAE@XZ 1001d107 f   serialport.obj
 0001:0001c130       __unwindfunclet$??1HandleScope@Nan@@QAE@XZ$0 1001d130 f   serialport.obj
 0001:0001c13e       __ehhandler$??1HandleScope@Nan@@QAE@XZ 1001d13e f   serialport.obj
 0001:0001c160       __unwindfunclet$?ThrowTypeError@Nan@@YAXPBD@Z$1 1001d160 f   serialport.obj
 0001:0001c169       __unwindfunclet$?ThrowTypeError@Nan@@YAXPBD@Z$0 1001d169 f   serialport.obj
 0001:0001c171       __unwindfunclet$?ThrowTypeError@Nan@@YAXPBD@Z$2 1001d171 f   serialport.obj
 0001:0001c17f       __ehhandler$?ThrowTypeError@Nan@@YAXPBD@Z 1001d17f f   serialport.obj
 0001:0001c1a0       __unwindfunclet$??0Utf8String@Nan@@QAE@V?$Local@VValue@v8@@@v8@@@Z$1 1001d1a0 f   serialport.obj
 0001:0001c1a9       __unwindfunclet$??0Utf8String@Nan@@QAE@V?$Local@VValue@v8@@@v8@@@Z$0 1001d1a9 f   serialport.obj
 0001:0001c1b1       __unwindfunclet$??0Utf8String@Nan@@QAE@V?$Local@VValue@v8@@@v8@@@Z$2 1001d1b1 f   serialport.obj
 0001:0001c1bf       __ehhandler$??0Utf8String@Nan@@QAE@V?$Local@VValue@v8@@@v8@@@Z 1001d1bf f   serialport.obj
 0001:0001c1e0       __ehhandler$??1?$Persistent@VFunction@v8@@V?$NonCopyablePersistentTraits@VFunction@v8@@@2@@v8@@QAE@XZ 1001d1e0 f   serialport.obj
 0001:0001c1e0       __ehhandler$??1Utf8String@Nan@@QAE@XZ 1001d1e0 f   serialport.obj
 0001:0001c1e0       __ehhandler$??1?$Persistent@VObject@v8@@V?$NonCopyablePersistentTraits@VObject@v8@@@2@@v8@@QAE@XZ 1001d1e0 f   serialport_win.obj
 0001:0001c1e0       __ehhandler$??1?$_Alloc_construct_ptr@V?$allocator@U?$_List_node@HPAX@std@@@std@@@std@@QAE@XZ 1001d1e0 f   serialport_win.obj
 0001:0001c1e0       __ehhandler$??1?$_Alloc_construct_ptr@V?$allocator@U?$_List_node@PAUListResultItem@@PAX@std@@@std@@@std@@QAE@XZ 1001d1e0 f   serialport_win.obj
 0001:0001c200       __unwindfunclet$??1Callback@Nan@@QAE@XZ$0 1001d200 f   serialport.obj
 0001:0001c208       __unwindfunclet$??1Callback@Nan@@QAE@XZ$1 1001d208 f   serialport.obj
 0001:0001c215       __ehhandler$??1Callback@Nan@@QAE@XZ 1001d215 f   serialport.obj
 0001:0001c240       __unwindfunclet$?Call@Callback@Nan@@QBE?AV?$MaybeLocal@VValue@v8@@@v8@@HQAV?$Local@VValue@v8@@@4@PAVAsyncResource@2@@Z$1 1001d240 f   serialport.obj
 0001:0001c249       __unwindfunclet$?Call@Callback@Nan@@QBE?AV?$MaybeLocal@VValue@v8@@@v8@@HQAV?$Local@VValue@v8@@@4@PAVAsyncResource@2@@Z$0 1001d249 f   serialport.obj
 0001:0001c251       __unwindfunclet$?Call@Callback@Nan@@QBE?AV?$MaybeLocal@VValue@v8@@@v8@@HQAV?$Local@VValue@v8@@@4@PAVAsyncResource@2@@Z$2 1001d251 f   serialport.obj
 0001:0001c25a       __unwindfunclet$?Call@Callback@Nan@@QBE?AV?$MaybeLocal@VValue@v8@@@v8@@HQAV?$Local@VValue@v8@@@4@PAVAsyncResource@2@@Z$3 1001d25a f   serialport.obj
 0001:0001c263       __unwindfunclet$?Call@Callback@Nan@@QBE?AV?$MaybeLocal@VValue@v8@@@v8@@HQAV?$Local@VValue@v8@@@4@PAVAsyncResource@2@@Z$4 1001d263 f   serialport.obj
 0001:0001c26c       __unwindfunclet$?Call@Callback@Nan@@QBE?AV?$MaybeLocal@VValue@v8@@@v8@@HQAV?$Local@VValue@v8@@@4@PAVAsyncResource@2@@Z$5 1001d26c f   serialport.obj
 0001:0001c27a       __ehhandler$?Call@Callback@Nan@@QBE?AV?$MaybeLocal@VValue@v8@@@v8@@HQAV?$Local@VValue@v8@@@4@PAVAsyncResource@2@@Z 1001d27a f   serialport.obj
 0001:0001c2a0       __unwindfunclet$??1?$Persistent@VFunction@v8@@V?$NonCopyablePersistentTraits@VFunction@v8@@@2@@Nan@@QAE@XZ$0 1001d2a0 f   serialport.obj
 0001:0001c2a0       __unwindfunclet$??1?$Persistent@VObject@v8@@V?$NonCopyablePersistentTraits@VObject@v8@@@2@@Nan@@QAE@XZ$0 1001d2a0 f   serialport_win.obj
 0001:0001c2ad       __ehhandler$??1?$Persistent@VFunction@v8@@V?$NonCopyablePersistentTraits@VFunction@v8@@@2@@Nan@@QAE@XZ 1001d2ad f   serialport.obj
 0001:0001c2ad       __ehhandler$??1?$Persistent@VObject@v8@@V?$NonCopyablePersistentTraits@VObject@v8@@@2@@Nan@@QAE@XZ 1001d2ad f   serialport_win.obj
 0001:0001c2d0       __unwindfunclet$??0VoidBaton@@QAE@XZ$0 1001d2d0 f   serialport.obj
 0001:0001c2d8       __unwindfunclet$??0VoidBaton@@QAE@XZ$3 1001d2d8 f   serialport.obj
 0001:0001c2e0       __unwindfunclet$??0VoidBaton@@QAE@XZ$2 1001d2e0 f   serialport.obj
 0001:0001c2e8       __unwindfunclet$??0VoidBaton@@QAE@XZ$1 1001d2e8 f   serialport.obj
 0001:0001c2f8       __ehhandler$??0VoidBaton@@QAE@XZ 1001d2f8 f   serialport.obj
 0001:0001c320       __unwindfunclet$?getValueFromObject@@YA?AV?$Local@VValue@v8@@@v8@@V?$Local@VObject@v8@@@2@V?$basic_string@DU?$char_traits@D@std@@V?$allocator@D@2@@std@@@Z$0 1001d320 f   serialport.obj
 0001:0001c328       __unwindfunclet$?getValueFromObject@@YA?AV?$Local@VValue@v8@@@v8@@V?$Local@VObject@v8@@@2@V?$basic_string@DU?$char_traits@D@std@@V?$allocator@D@2@@std@@@Z$1 1001d328 f   serialport.obj
 0001:0001c330       __unwindfunclet$?getValueFromObject@@YA?AV?$Local@VValue@v8@@@v8@@V?$Local@VObject@v8@@@2@V?$basic_string@DU?$char_traits@D@std@@V?$allocator@D@2@@std@@@Z$2 1001d330 f   serialport.obj
 0001:0001c339       __unwindfunclet$?getValueFromObject@@YA?AV?$Local@VValue@v8@@@v8@@V?$Local@VObject@v8@@@2@V?$basic_string@DU?$char_traits@D@std@@V?$allocator@D@2@@std@@@Z$3 1001d339 f   serialport.obj
 0001:0001c347       __ehhandler$?getValueFromObject@@YA?AV?$Local@VValue@v8@@@v8@@V?$Local@VObject@v8@@@2@V?$basic_string@DU?$char_traits@D@std@@V?$allocator@D@2@@std@@@Z 1001d347 f   serialport.obj
 0001:0001c370       __unwindfunclet$?getIntFromObject@@YAHV?$Local@VObject@v8@@@v8@@V?$basic_string@DU?$char_traits@D@std@@V?$allocator@D@2@@std@@@Z$0 1001d370 f   serialport.obj
 0001:0001c378       __unwindfunclet$?getIntFromObject@@YAHV?$Local@VObject@v8@@@v8@@V?$basic_string@DU?$char_traits@D@std@@V?$allocator@D@2@@std@@@Z$1 1001d378 f   serialport.obj
 0001:0001c380       __unwindfunclet$?getIntFromObject@@YAHV?$Local@VObject@v8@@@v8@@V?$basic_string@DU?$char_traits@D@std@@V?$allocator@D@2@@std@@@Z$2 1001d380 f   serialport.obj
 0001:0001c389       __unwindfunclet$?getIntFromObject@@YAHV?$Local@VObject@v8@@@v8@@V?$basic_string@DU?$char_traits@D@std@@V?$allocator@D@2@@std@@@Z$3 1001d389 f   serialport.obj
 0001:0001c397       __ehhandler$?getIntFromObject@@YAHV?$Local@VObject@v8@@@v8@@V?$basic_string@DU?$char_traits@D@std@@V?$allocator@D@2@@std@@@Z 1001d397 f   serialport.obj
 0001:0001c3c0       __unwindfunclet$?getBoolFromObject@@YA_NV?$Local@VObject@v8@@@v8@@V?$basic_string@DU?$char_traits@D@std@@V?$allocator@D@2@@std@@@Z$0 1001d3c0 f   serialport.obj
 0001:0001c3c8       __unwindfunclet$?getBoolFromObject@@YA_NV?$Local@VObject@v8@@@v8@@V?$basic_string@DU?$char_traits@D@std@@V?$allocator@D@2@@std@@@Z$1 1001d3c8 f   serialport.obj
 0001:0001c3d0       __unwindfunclet$?getBoolFromObject@@YA_NV?$Local@VObject@v8@@@v8@@V?$basic_string@DU?$char_traits@D@std@@V?$allocator@D@2@@std@@@Z$2 1001d3d0 f   serialport.obj
 0001:0001c3d9       __unwindfunclet$?getBoolFromObject@@YA_NV?$Local@VObject@v8@@@v8@@V?$basic_string@DU?$char_traits@D@std@@V?$allocator@D@2@@std@@@Z$3 1001d3d9 f   serialport.obj
 0001:0001c3e7       __ehhandler$?getBoolFromObject@@YA_NV?$Local@VObject@v8@@@v8@@V?$basic_string@DU?$char_traits@D@std@@V?$allocator@D@2@@std@@@Z 1001d3e7 f   serialport.obj
 0001:0001c410       __unwindfunclet$?Open@@YAXABV?$FunctionCallbackInfo@VValue@v8@@@Nan@@@Z$0 1001d410 f   serialport.obj
 0001:0001c418       __unwindfunclet$?Open@@YAXABV?$FunctionCallbackInfo@VValue@v8@@@Nan@@@Z$12 1001d418 f   serialport.obj
 0001:0001c421       __unwindfunclet$?Open@@YAXABV?$FunctionCallbackInfo@VValue@v8@@@Nan@@@Z$13 1001d421 f   serialport.obj
 0001:0001c42a       __unwindfunclet$?Open@@YAXABV?$FunctionCallbackInfo@VValue@v8@@@Nan@@@Z$1 1001d42a f   serialport.obj
 0001:0001c43c       __unwindfunclet$?Open@@YAXABV?$FunctionCallbackInfo@VValue@v8@@@Nan@@@Z$14 1001d43c f   serialport.obj
 0001:0001c444       __unwindfunclet$?Open@@YAXABV?$FunctionCallbackInfo@VValue@v8@@@Nan@@@Z$17 1001d444 f   serialport.obj
 0001:0001c44c       __unwindfunclet$?Open@@YAXABV?$FunctionCallbackInfo@VValue@v8@@@Nan@@@Z$16 1001d44c f   serialport.obj
 0001:0001c454       __unwindfunclet$?Open@@YAXABV?$FunctionCallbackInfo@VValue@v8@@@Nan@@@Z$15 1001d454 f   serialport.obj
 0001:0001c462       __unwindfunclet$?Open@@YAXABV?$FunctionCallbackInfo@VValue@v8@@@Nan@@@Z$2 1001d462 f   serialport.obj
 0001:0001c46a       __unwindfunclet$?Open@@YAXABV?$FunctionCallbackInfo@VValue@v8@@@Nan@@@Z$3 1001d46a f   serialport.obj
 0001:0001c472       __unwindfunclet$?Open@@YAXABV?$FunctionCallbackInfo@VValue@v8@@@Nan@@@Z$4 1001d472 f   serialport.obj
 0001:0001c47a       __unwindfunclet$?Open@@YAXABV?$FunctionCallbackInfo@VValue@v8@@@Nan@@@Z$18 1001d47a f   serialport.obj
 0001:0001c482       __unwindfunclet$?Open@@YAXABV?$FunctionCallbackInfo@VValue@v8@@@Nan@@@Z$19 1001d482 f   serialport.obj
 0001:0001c48a       __unwindfunclet$?Open@@YAXABV?$FunctionCallbackInfo@VValue@v8@@@Nan@@@Z$20 1001d48a f   serialport.obj
 0001:0001c493       __unwindfunclet$?Open@@YAXABV?$FunctionCallbackInfo@VValue@v8@@@Nan@@@Z$21 1001d493 f   serialport.obj
 0001:0001c49c       __unwindfunclet$?Open@@YAXABV?$FunctionCallbackInfo@VValue@v8@@@Nan@@@Z$24 1001d49c f   serialport.obj
 0001:0001c4a5       __unwindfunclet$?Open@@YAXABV?$FunctionCallbackInfo@VValue@v8@@@Nan@@@Z$22 1001d4a5 f   serialport.obj
 0001:0001c4ad       __unwindfunclet$?Open@@YAXABV?$FunctionCallbackInfo@VValue@v8@@@Nan@@@Z$23 1001d4ad f   serialport.obj
 0001:0001c4b8       __unwindfunclet$?Open@@YAXABV?$FunctionCallbackInfo@VValue@v8@@@Nan@@@Z$25 1001d4b8 f   serialport.obj
 0001:0001c4c1       __unwindfunclet$?Open@@YAXABV?$FunctionCallbackInfo@VValue@v8@@@Nan@@@Z$5 1001d4c1 f   serialport.obj
 0001:0001c4c9       __unwindfunclet$?Open@@YAXABV?$FunctionCallbackInfo@VValue@v8@@@Nan@@@Z$26 1001d4c9 f   serialport.obj
 0001:0001c4d1       __unwindfunclet$?Open@@YAXABV?$FunctionCallbackInfo@VValue@v8@@@Nan@@@Z$27 1001d4d1 f   serialport.obj
 0001:0001c4d9       __unwindfunclet$?Open@@YAXABV?$FunctionCallbackInfo@VValue@v8@@@Nan@@@Z$28 1001d4d9 f   serialport.obj
 0001:0001c4e2       __unwindfunclet$?Open@@YAXABV?$FunctionCallbackInfo@VValue@v8@@@Nan@@@Z$6 1001d4e2 f   serialport.obj
 0001:0001c4ea       __unwindfunclet$?Open@@YAXABV?$FunctionCallbackInfo@VValue@v8@@@Nan@@@Z$7 1001d4ea f   serialport.obj
 0001:0001c4f2       __unwindfunclet$?Open@@YAXABV?$FunctionCallbackInfo@VValue@v8@@@Nan@@@Z$8 1001d4f2 f   serialport.obj
 0001:0001c4fa       __unwindfunclet$?Open@@YAXABV?$FunctionCallbackInfo@VValue@v8@@@Nan@@@Z$9 1001d4fa f   serialport.obj
 0001:0001c502       __unwindfunclet$?Open@@YAXABV?$FunctionCallbackInfo@VValue@v8@@@Nan@@@Z$10 1001d502 f   serialport.obj
 0001:0001c50a       __unwindfunclet$?Open@@YAXABV?$FunctionCallbackInfo@VValue@v8@@@Nan@@@Z$11 1001d50a f   serialport.obj
 0001:0001c517       __ehhandler$?Open@@YAXABV?$FunctionCallbackInfo@VValue@v8@@@Nan@@@Z 1001d517 f   serialport.obj
 0001:0001c550       __unwindfunclet$?EIO_AfterOpen@@YAXPAUuv_work_s@@@Z$1 1001d550 f   serialport.obj
 0001:0001c559       __unwindfunclet$?EIO_AfterOpen@@YAXPAUuv_work_s@@@Z$0 1001d559 f   serialport.obj
 0001:0001c561       __unwindfunclet$?EIO_AfterOpen@@YAXPAUuv_work_s@@@Z$2 1001d561 f   serialport.obj
 0001:0001c56a       __unwindfunclet$?EIO_AfterOpen@@YAXPAUuv_work_s@@@Z$3 1001d56a f   serialport.obj
 0001:0001c573       __unwindfunclet$?EIO_AfterOpen@@YAXPAUuv_work_s@@@Z$4 1001d573 f   serialport.obj
 0001:0001c57b       __unwindfunclet$?EIO_AfterOpen@@YAXPAUuv_work_s@@@Z$5 1001d57b f   serialport.obj
 0001:0001c589       __unwindfunclet$?EIO_AfterOpen@@YAXPAUuv_work_s@@@Z$6 1001d589 f   serialport.obj
 0001:0001c591       __unwindfunclet$?EIO_AfterOpen@@YAXPAUuv_work_s@@@Z$7 1001d591 f   serialport.obj
 0001:0001c599       __unwindfunclet$?EIO_AfterOpen@@YAXPAUuv_work_s@@@Z$8 1001d599 f   serialport.obj
 0001:0001c5a7       __ehhandler$?EIO_AfterOpen@@YAXPAUuv_work_s@@@Z 1001d5a7 f   serialport.obj
 0001:0001c5d0       __unwindfunclet$?Update@@YAXABV?$FunctionCallbackInfo@VValue@v8@@@Nan@@@Z$2 1001d5d0 f   serialport.obj
 0001:0001c5d9       __unwindfunclet$?Update@@YAXABV?$FunctionCallbackInfo@VValue@v8@@@Nan@@@Z$3 1001d5d9 f   serialport.obj
 0001:0001c5e2       __unwindfunclet$?Update@@YAXABV?$FunctionCallbackInfo@VValue@v8@@@Nan@@@Z$4 1001d5e2 f   serialport.obj
 0001:0001c5eb       __unwindfunclet$?Update@@YAXABV?$FunctionCallbackInfo@VValue@v8@@@Nan@@@Z$5 1001d5eb f   serialport.obj
 0001:0001c5f4       __unwindfunclet$?Update@@YAXABV?$FunctionCallbackInfo@VValue@v8@@@Nan@@@Z$0 1001d5f4 f   serialport.obj
 0001:0001c606       __unwindfunclet$?Update@@YAXABV?$FunctionCallbackInfo@VValue@v8@@@Nan@@@Z$6 1001d606 f   serialport.obj
 0001:0001c614       __unwindfunclet$?Update@@YAXABV?$FunctionCallbackInfo@VValue@v8@@@Nan@@@Z$9 1001d614 f   serialport.obj
 0001:0001c61c       __unwindfunclet$?Update@@YAXABV?$FunctionCallbackInfo@VValue@v8@@@Nan@@@Z$8 1001d61c f   serialport.obj
 0001:0001c624       __unwindfunclet$?Update@@YAXABV?$FunctionCallbackInfo@VValue@v8@@@Nan@@@Z$7 1001d624 f   serialport.obj
 0001:0001c632       __unwindfunclet$?Update@@YAXABV?$FunctionCallbackInfo@VValue@v8@@@Nan@@@Z$1 1001d632 f   serialport.obj
 0001:0001c63f       __ehhandler$?Update@@YAXABV?$FunctionCallbackInfo@VValue@v8@@@Nan@@@Z 1001d63f f   serialport.obj
 0001:0001c660       __unwindfunclet$?EIO_AfterUpdate@@YAXPAUuv_work_s@@@Z$1 1001d660 f   serialport.obj
 0001:0001c669       __unwindfunclet$?EIO_AfterUpdate@@YAXPAUuv_work_s@@@Z$0 1001d669 f   serialport.obj
 0001:0001c671       __unwindfunclet$?EIO_AfterUpdate@@YAXPAUuv_work_s@@@Z$2 1001d671 f   serialport.obj
 0001:0001c67f       __unwindfunclet$?EIO_AfterUpdate@@YAXPAUuv_work_s@@@Z$3 1001d67f f   serialport.obj
 0001:0001c68d       __unwindfunclet$?EIO_AfterUpdate@@YAXPAUuv_work_s@@@Z$4 1001d68d f   serialport.obj
 0001:0001c695       __unwindfunclet$?EIO_AfterUpdate@@YAXPAUuv_work_s@@@Z$5 1001d695 f   serialport.obj
 0001:0001c69d       __unwindfunclet$?EIO_AfterUpdate@@YAXPAUuv_work_s@@@Z$6 1001d69d f   serialport.obj
 0001:0001c6ab       __ehhandler$?EIO_AfterUpdate@@YAXPAUuv_work_s@@@Z 1001d6ab f   serialport.obj
 0001:0001c6d0       __unwindfunclet$?Close@@YAXABV?$FunctionCallbackInfo@VValue@v8@@@Nan@@@Z$0 1001d6d0 f   serialport.obj
 0001:0001c6e2       __unwindfunclet$?Close@@YAXABV?$FunctionCallbackInfo@VValue@v8@@@Nan@@@Z$1 1001d6e2 f   serialport.obj
 0001:0001c6eb       __unwindfunclet$?Close@@YAXABV?$FunctionCallbackInfo@VValue@v8@@@Nan@@@Z$2 1001d6eb f   serialport.obj
 0001:0001c6f9       __ehhandler$?Close@@YAXABV?$FunctionCallbackInfo@VValue@v8@@@Nan@@@Z 1001d6f9 f   serialport.obj
 0001:0001c720       __unwindfunclet$?EIO_AfterClose@@YAXPAUuv_work_s@@@Z$1 1001d720 f   serialport.obj
 0001:0001c720       __unwindfunclet$?EIO_AfterDrain@@YAXPAUuv_work_s@@@Z$1 1001d720 f   serialport.obj
 0001:0001c720       __unwindfunclet$?EIO_AfterFlush@@YAXPAUuv_work_s@@@Z$1 1001d720 f   serialport.obj
 0001:0001c720       __unwindfunclet$?EIO_AfterSet@@YAXPAUuv_work_s@@@Z$1 1001d720 f   serialport.obj
 0001:0001c729       __unwindfunclet$?EIO_AfterClose@@YAXPAUuv_work_s@@@Z$0 1001d729 f   serialport.obj
 0001:0001c729       __unwindfunclet$?EIO_AfterDrain@@YAXPAUuv_work_s@@@Z$0 1001d729 f   serialport.obj
 0001:0001c729       __unwindfunclet$?EIO_AfterFlush@@YAXPAUuv_work_s@@@Z$0 1001d729 f   serialport.obj
 0001:0001c729       __unwindfunclet$?EIO_AfterSet@@YAXPAUuv_work_s@@@Z$0 1001d729 f   serialport.obj
 0001:0001c731       __unwindfunclet$?EIO_AfterClose@@YAXPAUuv_work_s@@@Z$2 1001d731 f   serialport.obj
 0001:0001c731       __unwindfunclet$?EIO_AfterDrain@@YAXPAUuv_work_s@@@Z$2 1001d731 f   serialport.obj
 0001:0001c731       __unwindfunclet$?EIO_AfterFlush@@YAXPAUuv_work_s@@@Z$2 1001d731 f   serialport.obj
 0001:0001c731       __unwindfunclet$?EIO_AfterSet@@YAXPAUuv_work_s@@@Z$2 1001d731 f   serialport.obj
 0001:0001c739       __unwindfunclet$?EIO_AfterClose@@YAXPAUuv_work_s@@@Z$3 1001d739 f   serialport.obj
 0001:0001c739       __unwindfunclet$?EIO_AfterDrain@@YAXPAUuv_work_s@@@Z$3 1001d739 f   serialport.obj
 0001:0001c739       __unwindfunclet$?EIO_AfterFlush@@YAXPAUuv_work_s@@@Z$3 1001d739 f   serialport.obj
 0001:0001c739       __unwindfunclet$?EIO_AfterSet@@YAXPAUuv_work_s@@@Z$3 1001d739 f   serialport.obj
 0001:0001c744       __unwindfunclet$?EIO_AfterClose@@YAXPAUuv_work_s@@@Z$4 1001d744 f   serialport.obj
 0001:0001c744       __unwindfunclet$?EIO_AfterDrain@@YAXPAUuv_work_s@@@Z$4 1001d744 f   serialport.obj
 0001:0001c744       __unwindfunclet$?EIO_AfterFlush@@YAXPAUuv_work_s@@@Z$4 1001d744 f   serialport.obj
 0001:0001c744       __unwindfunclet$?EIO_AfterSet@@YAXPAUuv_work_s@@@Z$4 1001d744 f   serialport.obj
 0001:0001c74c       __unwindfunclet$?EIO_AfterClose@@YAXPAUuv_work_s@@@Z$5 1001d74c f   serialport.obj
 0001:0001c74c       __unwindfunclet$?EIO_AfterDrain@@YAXPAUuv_work_s@@@Z$5 1001d74c f   serialport.obj
 0001:0001c74c       __unwindfunclet$?EIO_AfterFlush@@YAXPAUuv_work_s@@@Z$5 1001d74c f   serialport.obj
 0001:0001c74c       __unwindfunclet$?EIO_AfterSet@@YAXPAUuv_work_s@@@Z$5 1001d74c f   serialport.obj
 0001:0001c754       __unwindfunclet$?EIO_AfterClose@@YAXPAUuv_work_s@@@Z$6 1001d754 f   serialport.obj
 0001:0001c754       __unwindfunclet$?EIO_AfterDrain@@YAXPAUuv_work_s@@@Z$6 1001d754 f   serialport.obj
 0001:0001c754       __unwindfunclet$?EIO_AfterFlush@@YAXPAUuv_work_s@@@Z$6 1001d754 f   serialport.obj
 0001:0001c754       __unwindfunclet$?EIO_AfterSet@@YAXPAUuv_work_s@@@Z$6 1001d754 f   serialport.obj
 0001:0001c762       __ehhandler$?EIO_AfterClose@@YAXPAUuv_work_s@@@Z 1001d762 f   serialport.obj
 0001:0001c762       __ehhandler$?EIO_AfterDrain@@YAXPAUuv_work_s@@@Z 1001d762 f   serialport.obj
 0001:0001c762       __ehhandler$?EIO_AfterFlush@@YAXPAUuv_work_s@@@Z 1001d762 f   serialport.obj
 0001:0001c762       __ehhandler$?EIO_AfterSet@@YAXPAUuv_work_s@@@Z 1001d762 f   serialport.obj
 0001:0001c780       __unwindfunclet$?Flush@@YAXABV?$FunctionCallbackInfo@VValue@v8@@@Nan@@@Z$1 1001d780 f   serialport.obj
 0001:0001c789       __unwindfunclet$?Flush@@YAXABV?$FunctionCallbackInfo@VValue@v8@@@Nan@@@Z$0 1001d789 f   serialport.obj
 0001:0001c7a0       __ehhandler$?Flush@@YAXABV?$FunctionCallbackInfo@VValue@v8@@@Nan@@@Z 1001d7a0 f   serialport.obj
 0001:0001c7c0       __unwindfunclet$?Set@@YAXABV?$FunctionCallbackInfo@VValue@v8@@@Nan@@@Z$7 1001d7c0 f   serialport.obj
 0001:0001c7c9       __unwindfunclet$?Set@@YAXABV?$FunctionCallbackInfo@VValue@v8@@@Nan@@@Z$8 1001d7c9 f   serialport.obj
 0001:0001c7d2       __unwindfunclet$?Set@@YAXABV?$FunctionCallbackInfo@VValue@v8@@@Nan@@@Z$9 1001d7d2 f   serialport.obj
 0001:0001c7db       __unwindfunclet$?Set@@YAXABV?$FunctionCallbackInfo@VValue@v8@@@Nan@@@Z$0 1001d7db f   serialport.obj
 0001:0001c7ed       __unwindfunclet$?Set@@YAXABV?$FunctionCallbackInfo@VValue@v8@@@Nan@@@Z$10 1001d7ed f   serialport.obj
 0001:0001c7f5       __unwindfunclet$?Set@@YAXABV?$FunctionCallbackInfo@VValue@v8@@@Nan@@@Z$13 1001d7f5 f   serialport.obj
 0001:0001c7fd       __unwindfunclet$?Set@@YAXABV?$FunctionCallbackInfo@VValue@v8@@@Nan@@@Z$12 1001d7fd f   serialport.obj
 0001:0001c805       __unwindfunclet$?Set@@YAXABV?$FunctionCallbackInfo@VValue@v8@@@Nan@@@Z$11 1001d805 f   serialport.obj
 0001:0001c810       __unwindfunclet$?Set@@YAXABV?$FunctionCallbackInfo@VValue@v8@@@Nan@@@Z$1 1001d810 f   serialport.obj
 0001:0001c818       __unwindfunclet$?Set@@YAXABV?$FunctionCallbackInfo@VValue@v8@@@Nan@@@Z$2 1001d818 f   serialport.obj
 0001:0001c820       __unwindfunclet$?Set@@YAXABV?$FunctionCallbackInfo@VValue@v8@@@Nan@@@Z$3 1001d820 f   serialport.obj
 0001:0001c828       __unwindfunclet$?Set@@YAXABV?$FunctionCallbackInfo@VValue@v8@@@Nan@@@Z$4 1001d828 f   serialport.obj
 0001:0001c830       __unwindfunclet$?Set@@YAXABV?$FunctionCallbackInfo@VValue@v8@@@Nan@@@Z$5 1001d830 f   serialport.obj
 0001:0001c838       __unwindfunclet$?Set@@YAXABV?$FunctionCallbackInfo@VValue@v8@@@Nan@@@Z$6 1001d838 f   serialport.obj
 0001:0001c845       __ehhandler$?Set@@YAXABV?$FunctionCallbackInfo@VValue@v8@@@Nan@@@Z 1001d845 f   serialport.obj
 0001:0001c870       __unwindfunclet$?Get@@YAXABV?$FunctionCallbackInfo@VValue@v8@@@Nan@@@Z$1 1001d870 f   serialport.obj
 0001:0001c879       __unwindfunclet$?Get@@YAXABV?$FunctionCallbackInfo@VValue@v8@@@Nan@@@Z$0 1001d879 f   serialport.obj
 0001:0001c88b       __unwindfunclet$?Get@@YAXABV?$FunctionCallbackInfo@VValue@v8@@@Nan@@@Z$2 1001d88b f   serialport.obj
 0001:0001c893       __unwindfunclet$?Get@@YAXABV?$FunctionCallbackInfo@VValue@v8@@@Nan@@@Z$5 1001d893 f   serialport.obj
 0001:0001c89b       __unwindfunclet$?Get@@YAXABV?$FunctionCallbackInfo@VValue@v8@@@Nan@@@Z$4 1001d89b f   serialport.obj
 0001:0001c8a3       __unwindfunclet$?Get@@YAXABV?$FunctionCallbackInfo@VValue@v8@@@Nan@@@Z$3 1001d8a3 f   serialport.obj
 0001:0001c8b3       __ehhandler$?Get@@YAXABV?$FunctionCallbackInfo@VValue@v8@@@Nan@@@Z 1001d8b3 f   serialport.obj
 0001:0001c8d0       __unwindfunclet$?EIO_AfterGet@@YAXPAUuv_work_s@@@Z$1 1001d8d0 f   serialport.obj
 0001:0001c8d9       __unwindfunclet$?EIO_AfterGet@@YAXPAUuv_work_s@@@Z$0 1001d8d9 f   serialport.obj
 0001:0001c8e1       __unwindfunclet$?EIO_AfterGet@@YAXPAUuv_work_s@@@Z$2 1001d8e1 f   serialport.obj
 0001:0001c8ea       __unwindfunclet$?EIO_AfterGet@@YAXPAUuv_work_s@@@Z$3 1001d8ea f   serialport.obj
 0001:0001c8f3       __unwindfunclet$?EIO_AfterGet@@YAXPAUuv_work_s@@@Z$4 1001d8f3 f   serialport.obj
 0001:0001c8fc       __unwindfunclet$?EIO_AfterGet@@YAXPAUuv_work_s@@@Z$5 1001d8fc f   serialport.obj
 0001:0001c905       __unwindfunclet$?EIO_AfterGet@@YAXPAUuv_work_s@@@Z$6 1001d905 f   serialport.obj
 0001:0001c90d       __unwindfunclet$?EIO_AfterGet@@YAXPAUuv_work_s@@@Z$7 1001d90d f   serialport.obj
 0001:0001c918       __unwindfunclet$?EIO_AfterGet@@YAXPAUuv_work_s@@@Z$8 1001d918 f   serialport.obj
 0001:0001c920       __unwindfunclet$?EIO_AfterGet@@YAXPAUuv_work_s@@@Z$9 1001d920 f   serialport.obj
 0001:0001c928       __unwindfunclet$?EIO_AfterGet@@YAXPAUuv_work_s@@@Z$10 1001d928 f   serialport.obj
 0001:0001c936       __ehhandler$?EIO_AfterGet@@YAXPAUuv_work_s@@@Z 1001d936 f   serialport.obj
 0001:0001c960       __unwindfunclet$?GetBaudRate@@YAXABV?$FunctionCallbackInfo@VValue@v8@@@Nan@@@Z$1 1001d960 f   serialport.obj
 0001:0001c969       __unwindfunclet$?GetBaudRate@@YAXABV?$FunctionCallbackInfo@VValue@v8@@@Nan@@@Z$0 1001d969 f   serialport.obj
 0001:0001c97b       __unwindfunclet$?GetBaudRate@@YAXABV?$FunctionCallbackInfo@VValue@v8@@@Nan@@@Z$2 1001d97b f   serialport.obj
 0001:0001c983       __unwindfunclet$?GetBaudRate@@YAXABV?$FunctionCallbackInfo@VValue@v8@@@Nan@@@Z$5 1001d983 f   serialport.obj
 0001:0001c98b       __unwindfunclet$?GetBaudRate@@YAXABV?$FunctionCallbackInfo@VValue@v8@@@Nan@@@Z$4 1001d98b f   serialport.obj
 0001:0001c993       __unwindfunclet$?GetBaudRate@@YAXABV?$FunctionCallbackInfo@VValue@v8@@@Nan@@@Z$3 1001d993 f   serialport.obj
 0001:0001c9a3       __ehhandler$?GetBaudRate@@YAXABV?$FunctionCallbackInfo@VValue@v8@@@Nan@@@Z 1001d9a3 f   serialport.obj
 0001:0001c9c0       __unwindfunclet$?EIO_AfterGetBaudRate@@YAXPAUuv_work_s@@@Z$1 1001d9c0 f   serialport.obj
 0001:0001c9c9       __unwindfunclet$?EIO_AfterGetBaudRate@@YAXPAUuv_work_s@@@Z$0 1001d9c9 f   serialport.obj
 0001:0001c9d1       __unwindfunclet$?EIO_AfterGetBaudRate@@YAXPAUuv_work_s@@@Z$2 1001d9d1 f   serialport.obj
 0001:0001c9da       __unwindfunclet$?EIO_AfterGetBaudRate@@YAXPAUuv_work_s@@@Z$3 1001d9da f   serialport.obj
 0001:0001c9e2       __unwindfunclet$?EIO_AfterGetBaudRate@@YAXPAUuv_work_s@@@Z$4 1001d9e2 f   serialport.obj
 0001:0001c9ed       __unwindfunclet$?EIO_AfterGetBaudRate@@YAXPAUuv_work_s@@@Z$5 1001d9ed f   serialport.obj
 0001:0001c9f5       __unwindfunclet$?EIO_AfterGetBaudRate@@YAXPAUuv_work_s@@@Z$6 1001d9f5 f   serialport.obj
 0001:0001c9fd       __unwindfunclet$?EIO_AfterGetBaudRate@@YAXPAUuv_work_s@@@Z$7 1001d9fd f   serialport.obj
 0001:0001ca0b       __ehhandler$?EIO_AfterGetBaudRate@@YAXPAUuv_work_s@@@Z 1001da0b f   serialport.obj
 0001:0001ca30       __unwindfunclet$?Drain@@YAXABV?$FunctionCallbackInfo@VValue@v8@@@Nan@@@Z$1 1001da30 f   serialport.obj
 0001:0001ca39       __unwindfunclet$?Drain@@YAXABV?$FunctionCallbackInfo@VValue@v8@@@Nan@@@Z$0 1001da39 f   serialport.obj
 0001:0001ca50       __ehhandler$?Drain@@YAXABV?$FunctionCallbackInfo@VValue@v8@@@Nan@@@Z 1001da50 f   serialport.obj
 0001:0001ca70       __unwindfunclet$?init@@YAXV?$Local@VObject@v8@@@v8@@@Z$1 1001da70 f   serialport.obj
 0001:0001ca79       __unwindfunclet$?init@@YAXV?$Local@VObject@v8@@@v8@@@Z$0 1001da79 f   serialport.obj
 0001:0001ca81       __unwindfunclet$?init@@YAXV?$Local@VObject@v8@@@v8@@@Z$2 1001da81 f   serialport.obj
 0001:0001ca8f       __ehhandler$?init@@YAXV?$Local@VObject@v8@@@v8@@@Z 1001da8f f   serialport.obj
 0001:0001cab0       __unwindfunclet$??$New@VString@v8@@V?$basic_string@DU?$char_traits@D@std@@V?$allocator@D@2@@std@@@Nan@@YA?AV?$MaybeLocal@VString@v8@@@v8@@V?$basic_string@DU?$char_traits@D@std@@V?$allocator@D@2@@std@@@Z$0 1001dab0 f   serialport.obj
 0001:0001cabd       __ehhandler$??$New@VString@v8@@V?$basic_string@DU?$char_traits@D@std@@V?$allocator@D@2@@std@@@Nan@@YA?AV?$MaybeLocal@VString@v8@@@v8@@V?$basic_string@DU?$char_traits@D@std@@V?$allocator@D@2@@std@@@Z 1001dabd f   serialport.obj
 0001:0001cae0       __unwindfunclet$??$New@VInteger@v8@@H@Nan@@YA?AV?$Local@VInteger@v8@@@v8@@H@Z$0 1001dae0 f   serialport.obj
 0001:0001cae9       __unwindfunclet$??$New@VInteger@v8@@H@Nan@@YA?AV?$Local@VInteger@v8@@@v8@@H@Z$1 1001dae9 f   serialport.obj
 0001:0001caf7       __ehhandler$??$New@VInteger@v8@@H@Nan@@YA?AV?$Local@VInteger@v8@@@v8@@H@Z 1001daf7 f   serialport.obj
 0001:0001cb20       __unwindfunclet$??$SetMethod@VObject@v8@@VLocal@2@@Nan@@YAXV?$Local@VObject@v8@@@v8@@PBDP6AXABV?$FunctionCallbackInfo@VValue@v8@@@0@@ZV?$Local@VValue@v8@@@2@@Z$1 1001db20 f   serialport.obj
 0001:0001cb29       __unwindfunclet$??$SetMethod@VObject@v8@@VLocal@2@@Nan@@YAXV?$Local@VObject@v8@@@v8@@PBDP6AXABV?$FunctionCallbackInfo@VValue@v8@@@0@@ZV?$Local@VValue@v8@@@2@@Z$0 1001db29 f   serialport.obj
 0001:0001cb31       __unwindfunclet$??$SetMethod@VObject@v8@@VLocal@2@@Nan@@YAXV?$Local@VObject@v8@@@v8@@PBDP6AXABV?$FunctionCallbackInfo@VValue@v8@@@0@@ZV?$Local@VValue@v8@@@2@@Z$2 1001db31 f   serialport.obj
 0001:0001cb3f       __ehhandler$??$SetMethod@VObject@v8@@VLocal@2@@Nan@@YAXV?$Local@VObject@v8@@@v8@@PBDP6AXABV?$FunctionCallbackInfo@VValue@v8@@@0@@ZV?$Local@VValue@v8@@@2@@Z 1001db3f f   serialport.obj
 0001:0001cb60       __unwindfunclet$??$SetMethodAux@V?$Local@VObject@v8@@@v8@@@imp@Nan@@YAXV?$Local@VObject@v8@@@v8@@V?$Local@VString@v8@@@3@V?$Local@VFunctionTemplate@v8@@@3@ZZ$0 1001db60 f   serialport.obj
 0001:0001cb69       __unwindfunclet$??$SetMethodAux@V?$Local@VObject@v8@@@v8@@@imp@Nan@@YAXV?$Local@VObject@v8@@@v8@@V?$Local@VString@v8@@@3@V?$Local@VFunctionTemplate@v8@@@3@ZZ$1 1001db69 f   serialport.obj
 0001:0001cb72       __unwindfunclet$??$SetMethodAux@V?$Local@VObject@v8@@@v8@@@imp@Nan@@YAXV?$Local@VObject@v8@@@v8@@V?$Local@VString@v8@@@3@V?$Local@VFunctionTemplate@v8@@@3@ZZ$2 1001db72 f   serialport.obj
 0001:0001cb80       __ehhandler$??$SetMethodAux@V?$Local@VObject@v8@@@v8@@@imp@Nan@@YAXV?$Local@VObject@v8@@@v8@@V?$Local@VString@v8@@@3@V?$Local@VFunctionTemplate@v8@@@3@ZZ 1001db80 f   serialport.obj
 0001:0001cba0       __unwindfunclet$?Write@@YAXABV?$FunctionCallbackInfo@VValue@v8@@@Nan@@@Z$1 1001dba0 f   serialport_win.obj
 0001:0001cba9       __unwindfunclet$?Write@@YAXABV?$FunctionCallbackInfo@VValue@v8@@@Nan@@@Z$2 1001dba9 f   serialport_win.obj
 0001:0001cbb2       __unwindfunclet$?Write@@YAXABV?$FunctionCallbackInfo@VValue@v8@@@Nan@@@Z$3 1001dbb2 f   serialport_win.obj
 0001:0001cbbb       __unwindfunclet$?Write@@YAXABV?$FunctionCallbackInfo@VValue@v8@@@Nan@@@Z$0 1001dbbb f   serialport_win.obj
 0001:0001cbcd       __unwindfunclet$?Write@@YAXABV?$FunctionCallbackInfo@VValue@v8@@@Nan@@@Z$4 1001dbcd f   serialport_win.obj
 0001:0001cbd5       __unwindfunclet$?Write@@YAXABV?$FunctionCallbackInfo@VValue@v8@@@Nan@@@Z$7 1001dbd5 f   serialport_win.obj
 0001:0001cbdd       __unwindfunclet$?Write@@YAXABV?$FunctionCallbackInfo@VValue@v8@@@Nan@@@Z$5 1001dbdd f   serialport_win.obj
 0001:0001cbe8       __unwindfunclet$?Write@@YAXABV?$FunctionCallbackInfo@VValue@v8@@@Nan@@@Z$9 1001dbe8 f   serialport_win.obj
 0001:0001cbf0       __unwindfunclet$?Write@@YAXABV?$FunctionCallbackInfo@VValue@v8@@@Nan@@@Z$8 1001dbf0 f   serialport_win.obj
 0001:0001cbf8       __unwindfunclet$?Write@@YAXABV?$FunctionCallbackInfo@VValue@v8@@@Nan@@@Z$6 1001dbf8 f   serialport_win.obj
 0001:0001cc08       __ehhandler$?Write@@YAXABV?$FunctionCallbackInfo@VValue@v8@@@Nan@@@Z 1001dc08 f   serialport_win.obj
 0001:0001cc30       __unwindfunclet$?EIO_AfterWrite@@YAXPAUuv_async_s@@@Z$1 1001dc30 f   serialport_win.obj
 0001:0001cc39       __unwindfunclet$?EIO_AfterWrite@@YAXPAUuv_async_s@@@Z$0 1001dc39 f   serialport_win.obj
 0001:0001cc41       __unwindfunclet$?EIO_AfterWrite@@YAXPAUuv_async_s@@@Z$2 1001dc41 f   serialport_win.obj
 0001:0001cc49       __unwindfunclet$?EIO_AfterWrite@@YAXPAUuv_async_s@@@Z$3 1001dc49 f   serialport_win.obj
 0001:0001cc54       __unwindfunclet$?EIO_AfterWrite@@YAXPAUuv_async_s@@@Z$4 1001dc54 f   serialport_win.obj
 0001:0001cc5f       __unwindfunclet$?EIO_AfterWrite@@YAXPAUuv_async_s@@@Z$5 1001dc5f f   serialport_win.obj
 0001:0001cc67       __unwindfunclet$?EIO_AfterWrite@@YAXPAUuv_async_s@@@Z$6 1001dc67 f   serialport_win.obj
 0001:0001cc6f       __unwindfunclet$?EIO_AfterWrite@@YAXPAUuv_async_s@@@Z$7 1001dc6f f   serialport_win.obj
 0001:0001cc7a       __unwindfunclet$?EIO_AfterWrite@@YAXPAUuv_async_s@@@Z$8 1001dc7a f   serialport_win.obj
 0001:0001cc88       __ehhandler$?EIO_AfterWrite@@YAXPAUuv_async_s@@@Z 1001dc88 f   serialport_win.obj
 0001:0001ccb0       __unwindfunclet$?Read@@YAXABV?$FunctionCallbackInfo@VValue@v8@@@Nan@@@Z$1 1001dcb0 f   serialport_win.obj
 0001:0001ccb9       __unwindfunclet$?Read@@YAXABV?$FunctionCallbackInfo@VValue@v8@@@Nan@@@Z$2 1001dcb9 f   serialport_win.obj
 0001:0001ccc2       __unwindfunclet$?Read@@YAXABV?$FunctionCallbackInfo@VValue@v8@@@Nan@@@Z$3 1001dcc2 f   serialport_win.obj
 0001:0001cccb       __unwindfunclet$?Read@@YAXABV?$FunctionCallbackInfo@VValue@v8@@@Nan@@@Z$4 1001dccb f   serialport_win.obj
 0001:0001ccd4       __unwindfunclet$?Read@@YAXABV?$FunctionCallbackInfo@VValue@v8@@@Nan@@@Z$5 1001dcd4 f   serialport_win.obj
 0001:0001ccdd       __unwindfunclet$?Read@@YAXABV?$FunctionCallbackInfo@VValue@v8@@@Nan@@@Z$6 1001dcdd f   serialport_win.obj
 0001:0001cce6       __unwindfunclet$?Read@@YAXABV?$FunctionCallbackInfo@VValue@v8@@@Nan@@@Z$7 1001dce6 f   serialport_win.obj
 0001:0001ccef       __unwindfunclet$?Read@@YAXABV?$FunctionCallbackInfo@VValue@v8@@@Nan@@@Z$0 1001dcef f   serialport_win.obj
 0001:0001cd01       __unwindfunclet$?Read@@YAXABV?$FunctionCallbackInfo@VValue@v8@@@Nan@@@Z$8 1001dd01 f   serialport_win.obj
 0001:0001cd09       __unwindfunclet$?Read@@YAXABV?$FunctionCallbackInfo@VValue@v8@@@Nan@@@Z$11 1001dd09 f   serialport_win.obj
 0001:0001cd11       __unwindfunclet$?Read@@YAXABV?$FunctionCallbackInfo@VValue@v8@@@Nan@@@Z$10 1001dd11 f   serialport_win.obj
 0001:0001cd19       __unwindfunclet$?Read@@YAXABV?$FunctionCallbackInfo@VValue@v8@@@Nan@@@Z$9 1001dd19 f   serialport_win.obj
 0001:0001cd2c       __ehhandler$?Read@@YAXABV?$FunctionCallbackInfo@VValue@v8@@@Nan@@@Z 1001dd2c f   serialport_win.obj
 0001:0001cd50       __unwindfunclet$?EIO_AfterRead@@YAXPAUuv_async_s@@@Z$1 1001dd50 f   serialport_win.obj
 0001:0001cd59       __unwindfunclet$?EIO_AfterRead@@YAXPAUuv_async_s@@@Z$0 1001dd59 f   serialport_win.obj
 0001:0001cd61       __unwindfunclet$?EIO_AfterRead@@YAXPAUuv_async_s@@@Z$3 1001dd61 f   serialport_win.obj
 0001:0001cd6a       __unwindfunclet$?EIO_AfterRead@@YAXPAUuv_async_s@@@Z$2 1001dd6a f   serialport_win.obj
 0001:0001cd72       __unwindfunclet$?EIO_AfterRead@@YAXPAUuv_async_s@@@Z$4 1001dd72 f   serialport_win.obj
 0001:0001cd7b       __unwindfunclet$?EIO_AfterRead@@YAXPAUuv_async_s@@@Z$5 1001dd7b f   serialport_win.obj
 0001:0001cd84       __unwindfunclet$?EIO_AfterRead@@YAXPAUuv_async_s@@@Z$6 1001dd84 f   serialport_win.obj
 0001:0001cd8c       __unwindfunclet$?EIO_AfterRead@@YAXPAUuv_async_s@@@Z$7 1001dd8c f   serialport_win.obj
 0001:0001cd9a       __unwindfunclet$?EIO_AfterRead@@YAXPAUuv_async_s@@@Z$8 1001dd9a f   serialport_win.obj
 0001:0001cda2       __unwindfunclet$?EIO_AfterRead@@YAXPAUuv_async_s@@@Z$9 1001dda2 f   serialport_win.obj
 0001:0001cdaa       __unwindfunclet$?EIO_AfterRead@@YAXPAUuv_async_s@@@Z$10 1001ddaa f   serialport_win.obj
 0001:0001cdb8       __ehhandler$?EIO_AfterRead@@YAXPAUuv_async_s@@@Z 1001ddb8 f   serialport_win.obj
 0001:0001cde0       __unwindfunclet$?EIO_Close@@YAXPAUuv_work_s@@@Z$1 1001dde0 f   serialport_win.obj
 0001:0001cde8       __unwindfunclet$?EIO_Close@@YAXPAUuv_work_s@@@Z$0 1001dde8 f   serialport_win.obj
 0001:0001cdf0       __unwindfunclet$?EIO_Close@@YAXPAUuv_work_s@@@Z$2 1001ddf0 f   serialport_win.obj
 0001:0001cdfd       __ehhandler$?EIO_Close@@YAXPAUuv_work_s@@@Z 1001ddfd f   serialport_win.obj
 0001:0001ce20       __unwindfunclet$?List@@YAXABV?$FunctionCallbackInfo@VValue@v8@@@Nan@@@Z$0 1001de20 f   serialport_win.obj
 0001:0001ce32       __unwindfunclet$?List@@YAXABV?$FunctionCallbackInfo@VValue@v8@@@Nan@@@Z$1 1001de32 f   serialport_win.obj
 0001:0001ce3a       __unwindfunclet$?List@@YAXABV?$FunctionCallbackInfo@VValue@v8@@@Nan@@@Z$5 1001de3a f   serialport_win.obj
 0001:0001ce42       __unwindfunclet$?List@@YAXABV?$FunctionCallbackInfo@VValue@v8@@@Nan@@@Z$4 1001de42 f   serialport_win.obj
 0001:0001ce4a       __unwindfunclet$?List@@YAXABV?$FunctionCallbackInfo@VValue@v8@@@Nan@@@Z$2 1001de4a f   serialport_win.obj
 0001:0001ce55       __unwindfunclet$?List@@YAXABV?$FunctionCallbackInfo@VValue@v8@@@Nan@@@Z$3 1001de55 f   serialport_win.obj
 0001:0001ce65       __ehhandler$?List@@YAXABV?$FunctionCallbackInfo@VValue@v8@@@Nan@@@Z 1001de65 f   serialport_win.obj
 0001:0001ce90       __unwindfunclet$?EIO_List@@YAXPAUuv_work_s@@@Z$0 1001de90 f   serialport_win.obj
 0001:0001ce9b       __unwindfunclet$?EIO_List@@YAXPAUuv_work_s@@@Z$1 1001de9b f   serialport_win.obj
 0001:0001cea9       __unwindfunclet$?EIO_List@@YAXPAUuv_work_s@@@Z$2 1001dea9 f   serialport_win.obj
 0001:0001ceb7       __unwindfunclet$?EIO_List@@YAXPAUuv_work_s@@@Z$3 1001deb7 f   serialport_win.obj
 0001:0001cec5       __unwindfunclet$?EIO_List@@YAXPAUuv_work_s@@@Z$4 1001dec5 f   serialport_win.obj
 0001:0001ced3       __unwindfunclet$?EIO_List@@YAXPAUuv_work_s@@@Z$5 1001ded3 f   serialport_win.obj
 0001:0001cee1       __unwindfunclet$?EIO_List@@YAXPAUuv_work_s@@@Z$6 1001dee1 f   serialport_win.obj
 0001:0001cef2       __unwindfunclet$?EIO_List@@YAXPAUuv_work_s@@@Z$8 1001def2 f   serialport_win.obj
 0001:0001cefd       __unwindfunclet$?EIO_List@@YAXPAUuv_work_s@@@Z$7 1001defd f   serialport_win.obj
 0001:0001cf08       __unwindfunclet$?EIO_List@@YAXPAUuv_work_s@@@Z$9 1001df08 f   serialport_win.obj
 0001:0001cf18       __ehhandler$?EIO_List@@YAXPAUuv_work_s@@@Z 1001df18 f   serialport_win.obj
 0001:0001cf50       __unwindfunclet$?setIfNotEmpty@@YAXV?$Local@VObject@v8@@@v8@@V?$basic_string@DU?$char_traits@D@std@@V?$allocator@D@2@@std@@PBD@Z$0 1001df50 f   serialport_win.obj
 0001:0001cf58       __unwindfunclet$?setIfNotEmpty@@YAXV?$Local@VObject@v8@@@v8@@V?$basic_string@DU?$char_traits@D@std@@V?$allocator@D@2@@std@@PBD@Z$1 1001df58 f   serialport_win.obj
 0001:0001cf60       __unwindfunclet$?setIfNotEmpty@@YAXV?$Local@VObject@v8@@@v8@@V?$basic_string@DU?$char_traits@D@std@@V?$allocator@D@2@@std@@PBD@Z$2 1001df60 f   serialport_win.obj
 0001:0001cf69       __unwindfunclet$?setIfNotEmpty@@YAXV?$Local@VObject@v8@@@v8@@V?$basic_string@DU?$char_traits@D@std@@V?$allocator@D@2@@std@@PBD@Z$3 1001df69 f   serialport_win.obj
 0001:0001cf77       __ehhandler$?setIfNotEmpty@@YAXV?$Local@VObject@v8@@@v8@@V?$basic_string@DU?$char_traits@D@std@@V?$allocator@D@2@@std@@PBD@Z 1001df77 f   serialport_win.obj
 0001:0001cfa0       __unwindfunclet$?EIO_AfterList@@YAXPAUuv_work_s@@@Z$8 1001dfa0 f   serialport_win.obj
 0001:0001cfa9       __unwindfunclet$?EIO_AfterList@@YAXPAUuv_work_s@@@Z$0 1001dfa9 f   serialport_win.obj
 0001:0001cfb1       __unwindfunclet$?EIO_AfterList@@YAXPAUuv_work_s@@@Z$1 1001dfb1 f   serialport_win.obj
 0001:0001cfb9       __unwindfunclet$?EIO_AfterList@@YAXPAUuv_work_s@@@Z$2 1001dfb9 f   serialport_win.obj
 0001:0001cfc1       __unwindfunclet$?EIO_AfterList@@YAXPAUuv_work_s@@@Z$3 1001dfc1 f   serialport_win.obj
 0001:0001cfc9       __unwindfunclet$?EIO_AfterList@@YAXPAUuv_work_s@@@Z$4 1001dfc9 f   serialport_win.obj
 0001:0001cfd1       __unwindfunclet$?EIO_AfterList@@YAXPAUuv_work_s@@@Z$5 1001dfd1 f   serialport_win.obj
 0001:0001cfd9       __unwindfunclet$?EIO_AfterList@@YAXPAUuv_work_s@@@Z$6 1001dfd9 f   serialport_win.obj
 0001:0001cfe1       __unwindfunclet$?EIO_AfterList@@YAXPAUuv_work_s@@@Z$7 1001dfe1 f   serialport_win.obj
 0001:0001cfe9       __unwindfunclet$?EIO_AfterList@@YAXPAUuv_work_s@@@Z$9 1001dfe9 f   serialport_win.obj
 0001:0001cff2       __unwindfunclet$?EIO_AfterList@@YAXPAUuv_work_s@@@Z$10 1001dff2 f   serialport_win.obj
 0001:0001cffa       __unwindfunclet$?EIO_AfterList@@YAXPAUuv_work_s@@@Z$11 1001dffa f   serialport_win.obj
 0001:0001d005       __unwindfunclet$?EIO_AfterList@@YAXPAUuv_work_s@@@Z$12 1001e005 f   serialport_win.obj
 0001:0001d010       __unwindfunclet$?EIO_AfterList@@YAXPAUuv_work_s@@@Z$13 1001e010 f   serialport_win.obj
 0001:0001d018       __unwindfunclet$?EIO_AfterList@@YAXPAUuv_work_s@@@Z$14 1001e018 f   serialport_win.obj
 0001:0001d020       __unwindfunclet$?EIO_AfterList@@YAXPAUuv_work_s@@@Z$15 1001e020 f   serialport_win.obj
 0001:0001d02e       __ehhandler$?EIO_AfterList@@YAXPAUuv_work_s@@@Z 1001e02e f   serialport_win.obj
 0001:0001d050       __unwindfunclet$??1ListResultItem@@QAE@XZ$0 1001e050 f   serialport_win.obj
 0001:0001d058       __unwindfunclet$??1ListResultItem@@QAE@XZ$1 1001e058 f   serialport_win.obj
 0001:0001d063       __unwindfunclet$??1ListResultItem@@QAE@XZ$2 1001e063 f   serialport_win.obj
 0001:0001d06e       __unwindfunclet$??1ListResultItem@@QAE@XZ$3 1001e06e f   serialport_win.obj
 0001:0001d079       __unwindfunclet$??1ListResultItem@@QAE@XZ$4 1001e079 f   serialport_win.obj
 0001:0001d084       __unwindfunclet$??1ListResultItem@@QAE@XZ$5 1001e084 f   serialport_win.obj
 0001:0001d08f       __unwindfunclet$??1ListResultItem@@QAE@XZ$6 1001e08f f   serialport_win.obj
 0001:0001d0a2       __ehhandler$??1ListResultItem@@QAE@XZ 1001e0a2 f   serialport_win.obj
 0001:0001d0c0       __ehhandler$??1?$list@PAUListResultItem@@V?$allocator@PAUListResultItem@@@std@@@std@@QAE@XZ 1001e0c0 f   serialport_win.obj
 0001:0001d0e0       __unwindfunclet$??1?$_List_node_emplace_op2@V?$allocator@U?$_List_node@HPAX@std@@@std@@@std@@QAE@XZ$0 1001e0e0 f   serialport_win.obj
 0001:0001d0e0       __unwindfunclet$??1?$_List_node_emplace_op2@V?$allocator@U?$_List_node@PAUListResultItem@@PAX@std@@@std@@@std@@QAE@XZ$0 1001e0e0 f   serialport_win.obj
 0001:0001d0ed       __ehhandler$??1?$_List_node_emplace_op2@V?$allocator@U?$_List_node@HPAX@std@@@std@@@std@@QAE@XZ 1001e0ed f   serialport_win.obj
 0001:0001d0ed       __ehhandler$??1?$_List_node_emplace_op2@V?$allocator@U?$_List_node@PAUListResultItem@@PAX@std@@@std@@@std@@QAE@XZ 1001e0ed f   serialport_win.obj
 0001:0001d10a       __ehhandler$?CallUnexpected@@YAXPBU_s_ESTypeList@@@Z 1001e10a f   libvcruntime:frame.obj
 0001:0001d130       ??__Fg_closingHandles@@YAXXZ 1001e130 f   serialport_win.obj
 0002:000001b4       ?g_closingHandles$initializer$@@3P6AXXZA 1001f1b4     serialport_win.obj
 0002:00000250       _GS_ExceptionPointers      1001f250     LIBCMT:gs_report.obj
 0002:00000290       ?tokenTable@@3QBUStringLiteral@@B 1001f290     libvcruntime:undname.obj
 0002:00000310       ?nameTable@@3QBUStringLiteral@@B 1001f310     libvcruntime:undname.obj
 0002:000005a8       ?rttiTable@@3QBUStringLiteral@@B 1001f5a8     libvcruntime:undname.obj
 0002:000005d0       ?IndirectionName@@3QBUStringLiteral@@B 1001f5d0     libvcruntime:undname.obj
 0002:00000600       ?PrefixName@@3QBUStringLiteral@@B 1001f600     libvcruntime:undname.obj
 0002:00000c30       ?module_names@?A0x87e98a64@@3QBQB_WB 1001fc30     libvcruntime:winapi_downlevel.obj
 0002:00000cd8       ?candidate_modules@?1??try_get_FlsAlloc@@YAP6GKP6GXPAX@Z@ZXZ@4QBW4module_id@?A0x87e98a64@@B 1001fcd8     libvcruntime:winapi_downlevel.obj
 0002:00000cec       ?candidate_modules@?1??try_get_FlsFree@@YAP6GHK@ZXZ@4QBW4module_id@?A0x87e98a64@@B 1001fcec     libvcruntime:winapi_downlevel.obj
 0002:00000cfc       ?candidate_modules@?1??try_get_FlsGetValue@@YAP6GPAXK@ZXZ@4QBW4module_id@?A0x87e98a64@@B 1001fcfc     libvcruntime:winapi_downlevel.obj
 0002:00000d10       ?candidate_modules@?1??try_get_FlsSetValue@@YAP6GHKPAX@ZXZ@4QBW4module_id@?A0x87e98a64@@B 1001fd10     libvcruntime:winapi_downlevel.obj
 0002:00000d24       ?candidate_modules@?1??try_get_InitializeCriticalSectionEx@@YAP6GHPAU_RTL_CRITICAL_SECTION@@KK@ZXZ@4QBW4module_id@?A0x87e98a64@@B 1001fd24     libvcruntime:winapi_downlevel.obj
 0002:000018e0       ___acrt_initializers       100208e0     libucrt:initialization.obj
 0002:00001960       ?errtable@@3QBUerrentry@?A0x31fdb9ec@@B 10020960     libucrt:errno.obj
 0002:00001ac8       ?strings@?1??fp_format_nan_or_infinity@@YAHW4__acrt_fp_class@@_NPADI1@Z@4QAY03QBDA 10020ac8     libucrt:cvt.obj
 0002:00002010       ?_mb_locale_names@@3QBQB_WB 10021010     libucrt:mbctype.obj
 0002:00002050       ?module_names@?A0x391cf84c@@3QBQB_WB 10021050     libucrt:winapi_thunks.obj
 0002:000024c8       ?candidate_modules@?1??try_get_AreFileApisANSI@@YAP6GHXZXZ@4QBW4module_id@?A0x391cf84c@@B 100214c8     libucrt:winapi_thunks.obj
 0002:000024dc       ?candidate_modules@?1??try_get_FlsAlloc@@YAP6GKP6GXPAX@Z@ZXZ@4QBW4module_id@?A0x391cf84c@@B 100214dc     libucrt:winapi_thunks.obj
 0002:000024e4       ?candidate_modules@?1??try_get_FlsFree@@YAP6GHK@ZXZ@4QBW4module_id@?A0x391cf84c@@B 100214e4     libucrt:winapi_thunks.obj
 0002:000024ec       ?candidate_modules@?1??try_get_FlsGetValue@@YAP6GPAXK@ZXZ@4QBW4module_id@?A0x391cf84c@@B 100214ec     libucrt:winapi_thunks.obj
 0002:000024f4       ?candidate_modules@?1??try_get_FlsSetValue@@YAP6GHKPAX@ZXZ@4QBW4module_id@?A0x391cf84c@@B 100214f4     libucrt:winapi_thunks.obj
 0002:000024fc       ?candidate_modules@?1??try_get_GetActiveWindow@@YAP6GPAUHWND__@@XZXZ@4QBW4module_id@?A0x391cf84c@@B 100214fc     libucrt:winapi_thunks.obj
 0002:00002514       ?candidate_modules@?1??try_get_GetLastActivePopup@@YAP6GPAUHWND__@@PAU2@@ZXZ@4QBW4module_id@?A0x391cf84c@@B 10021514     libucrt:winapi_thunks.obj
 0002:00002530       ?candidate_modules@?1??try_get_GetProcessWindowStation@@YAP6GPAUHWINSTA__@@XZXZ@4QBW4module_id@?A0x391cf84c@@B 10021530     libucrt:winapi_thunks.obj
 0002:00002550       ?candidate_modules@?1??try_get_GetUserObjectInformationW@@YAP6GHPAXH0KPAK@ZXZ@4QBW4module_id@?A0x391cf84c@@B 10021550     libucrt:winapi_thunks.obj
 0002:00002574       ?candidate_modules@?1??try_get_InitializeCriticalSectionEx@@YAP6GHPAU_RTL_CRITICAL_SECTION@@KK@ZXZ@4QBW4module_id@?A0x391cf84c@@B 10021574     libucrt:winapi_thunks.obj
 0002:0000257c       ?candidate_modules@?1??try_get_LCMapStringEx@@YAP6GHPB_WK0HPA_WHPAU_nlsversioninfo@@PAXJ@ZXZ@4QBW4module_id@?A0x391cf84c@@B 1002157c     libucrt:winapi_thunks.obj
 0002:00002594       ?candidate_modules@?1??try_get_LocaleNameToLCID@@YAP6GKPB_WK@ZXZ@4QBW4module_id@?A0x391cf84c@@B 10021594     libucrt:winapi_thunks.obj
 0002:000025b0       ?candidate_modules@?1??try_get_MessageBoxA@@YAP6GHPAUHWND__@@PBD1I@ZXZ@4QBW4module_id@?A0x391cf84c@@B 100215b0     libucrt:winapi_thunks.obj
 0002:000025c4       ?candidate_modules@?1??try_get_MessageBoxW@@YAP6GHPAUHWND__@@PB_W1I@ZXZ@4QBW4module_id@?A0x391cf84c@@B 100215c4     libucrt:winapi_thunks.obj
 0002:000025d8       ?candidate_modules@?1??try_get_AppPolicyGetProcessTerminationMethod@@YAP6GJPAXPAW4AppPolicyProcessTerminationMethod@@@ZXZ@4QBW4module_id@?A0x391cf84c@@B 100215d8     libucrt:winapi_thunks.obj
 0002:00002604       ?candidate_modules@?1??try_get_AppPolicyGetShowDeveloperDiagnostic@@YAP6GJPAXPAW4AppPolicyShowDeveloperDiagnostic@@@ZXZ@4QBW4module_id@?A0x391cf84c@@B 10021604     libucrt:winapi_thunks.obj
 0002:0000262c       ?candidate_modules@?1??try_get_AppPolicyGetWindowingModel@@YAP6GJPAXPAW4AppPolicyWindowingModel@@@ZXZ@4QBW4module_id@?A0x391cf84c@@B 1002162c     libucrt:winapi_thunks.obj
 0002:00003848       ?LcidToLocaleNameTable@?A0x881e4c05@@3QBULcidToLocaleName@1@B 10022848     libucrt:lcidtoname_downlevel.obj
 0002:00004968       ?LocaleNameToIndexTable@?A0x881e4c05@@3QBULocaleNameIndex@1@B 10023968     libucrt:lcidtoname_downlevel.obj
 0002:000058c0       LOG_name                   100248c0     libucrt:log10_impl.obj
 0002:000058d0       _One                       100248d0     libucrt:ceil_pentium4.obj
 0002:000058e0       _Bns                       100248e0     libucrt:ceil_pentium4.obj
 0002:000058f0       _Zero                      100248f0     libucrt:ceil_pentium4.obj
 0002:00005900       _S                         10024900     libucrt:ceil_pentium4.obj
 0002:00005910       _NegZero                   10024910     libucrt:ceil_pentium4.obj
 0002:00005920       emask                      10024920     libucrt:log10_pentium4.obj
 0002:00005930       CC                         10024930     libucrt:log10_pentium4.obj
 0002:00005940       Magic                      10024940     libucrt:log10_pentium4.obj
 0002:00005950       hi_mask                    10024950     libucrt:log10_pentium4.obj
 0002:00005960       LOG10_2                    10024960     libucrt:log10_pentium4.obj
 0002:00005970       place_L                    10024970     libucrt:log10_pentium4.obj
 0002:00005990       One                        10024990     libucrt:log10_pentium4.obj
 0002:000059a0       Zero                       100249a0     libucrt:log10_pentium4.obj
 0002:000059b0       Two52                      100249b0     libucrt:log10_pentium4.obj
 0002:000059c0       Infs                       100249c0     libucrt:log10_pentium4.obj
 0002:000059d0       NaN                        100249d0     libucrt:log10_pentium4.obj
 0002:000059e0       coeff                      100249e0     libucrt:log10_pentium4.obj
 0002:00005a3e       _log2max                   10024a3e     libucrt:87tran.obj
 0002:00005a48       _smallarg                  10024a48     libucrt:87tran.obj
 0002:00005a52       _half                      10024a52     libucrt:87tran.obj
 0002:00005a9e       One                        10024a9e     libucrt:87disp.obj
 0002:00005aa6       Three                      10024aa6     libucrt:87disp.obj
 0002:00005aae       XAMtoTagTab                10024aae     libucrt:87disp.obj
 0002:00005ac0       One                        10024ac0     libucrt:common.obj
 0002:00005ad4       DblMax                     10024ad4     libucrt:common.obj
 0002:00005adc       DblMin                     10024adc     libucrt:common.obj
 0002:00005ae4       IeeeAdjO                   10024ae4     libucrt:common.obj
 0002:00005aec       IeeeAdjU                   10024aec     libucrt:common.obj
 0002:00005af4       _infinity                  10024af4     libucrt:common.obj
 0002:00005afc       _zero                      10024afc     libucrt:common.obj
 0002:00005b48       _over                      10024b48     libucrt:fpctrl.obj
 0002:00005b54       _under                     10024b54     libucrt:fpctrl.obj
 0002:00006388       ?_names@?1??_get_fname@@9@9 10025388     libucrt:fpexcept.obj
 0002:00006580       two32                      10025580     LIBCMT:ftol2.obj
 0002:00006584       two63                      10025584     LIBCMT:ftol2.obj
 0002:00006588       _NaN                       10025588     LIBCMT:ftol2.obj
 0002:00006bb4       ?_Fake_alloc@std@@3U_Fake_allocator@1@B 10025bb4     serialport.obj
 0002:00006bb5       ?_Fake_alloc@std@@3U_Fake_allocator@1@B 10025bb5     serialport_win.obj
 0002:000079b8       __unwindtable$??1bad_alloc@stdext@@UAE@XZ 100269b8     serialport.obj
 0002:000079c0       __ehfuncinfo$??1bad_alloc@stdext@@UAE@XZ 100269c0     serialport.obj
 0002:000079e4       __unwindtable$??_Gbad_alloc@stdext@@UAEPAXI@Z 100269e4     serialport.obj
 0002:000079ec       __ehfuncinfo$??_Gbad_alloc@stdext@@UAEPAXI@Z 100269ec     serialport.obj
 0002:00007a10       __unwindtable$??0bad_array_new_length@stdext@@QAE@XZ 10026a10     serialport.obj
 0002:00007a20       __ehfuncinfo$??0bad_array_new_length@stdext@@QAE@XZ 10026a20     serialport.obj
 0002:00007a44       __unwindtable$??_Gbad_array_new_length@stdext@@UAEPAXI@Z 10026a44     serialport.obj
 0002:00007a54       __ehfuncinfo$??_Gbad_array_new_length@stdext@@UAEPAXI@Z 10026a54     serialport.obj
 0002:00007a78       __unwindtable$??1bad_array_new_length@stdext@@UAE@XZ 10026a78     serialport.obj
 0002:00007a88       __ehfuncinfo$??1bad_array_new_length@stdext@@UAE@XZ 10026a88     serialport.obj
 0002:00007aac       __unwindtable$?_Throw_bad_array_new_length@std@@YAXXZ 10026aac     serialport.obj
 0002:00007ac4       __ehfuncinfo$?_Throw_bad_array_new_length@std@@YAXXZ 10026ac4     serialport.obj
 0002:00007ae8       __unwindtable$?New@?$Factory@VFunctionTemplate@v8@@@imp@Nan@@SA?AV?$Local@VFunctionTemplate@v8@@@v8@@P6AXABV?$FunctionCallbackInfo@VValue@v8@@@3@@ZV?$Local@VValue@v8@@@5@V?$Local@VSignature@v8@@@5@@Z 10026ae8     serialport.obj
 0002:00007b08       __ehfuncinfo$?New@?$Factory@VFunctionTemplate@v8@@@imp@Nan@@SA?AV?$Local@VFunctionTemplate@v8@@@v8@@P6AXABV?$FunctionCallbackInfo@VValue@v8@@@3@@ZV?$Local@VValue@v8@@@5@V?$Local@VSignature@v8@@@5@@Z 10026b08     serialport.obj
 0002:00007b2c       __ehfuncinfo$??1?$Persistent@VFunction@v8@@V?$NonCopyablePersistentTraits@VFunction@v8@@@2@@v8@@QAE@XZ 10026b2c     serialport.obj
 0002:00007b2c       __ehfuncinfo$??1?$basic_string@DU?$char_traits@D@std@@V?$allocator@D@2@@std@@QAE@XZ 10026b2c     serialport.obj
 0002:00007b2c       __ehfuncinfo$??1AsyncResource@Nan@@QAE@XZ 10026b2c     serialport.obj
 0002:00007b2c       __ehfuncinfo$??1Utf8String@Nan@@QAE@XZ 10026b2c     serialport.obj
 0002:00007b2c       __ehfuncinfo$??1?$Persistent@VObject@v8@@V?$NonCopyablePersistentTraits@VObject@v8@@@2@@v8@@QAE@XZ 10026b2c     serialport_win.obj
 0002:00007b2c       __ehfuncinfo$??1?$_Alloc_construct_ptr@V?$allocator@U?$_List_node@HPAX@std@@@std@@@std@@QAE@XZ 10026b2c     serialport_win.obj
 0002:00007b2c       __ehfuncinfo$??1?$_Alloc_construct_ptr@V?$allocator@U?$_List_node@PAUListResultItem@@PAX@std@@@std@@@std@@QAE@XZ 10026b2c     serialport_win.obj
 0002:00007b2c       __ehfuncinfo$??1?$list@PAUListResultItem@@V?$allocator@PAUListResultItem@@@std@@@std@@QAE@XZ 10026b2c     serialport_win.obj
 0002:00007b50       __unwindtable$??1EscapableHandleScope@Nan@@QAE@XZ 10026b50     serialport.obj
 0002:00007b60       __ehfuncinfo$??1EscapableHandleScope@Nan@@QAE@XZ 10026b60     serialport.obj
 0002:00007b84       __unwindtable$??1HandleScope@Nan@@QAE@XZ 10026b84     serialport.obj
 0002:00007b8c       __ehfuncinfo$??1HandleScope@Nan@@QAE@XZ 10026b8c     serialport.obj
 0002:00007bb0       __unwindtable$?ThrowTypeError@Nan@@YAXPBD@Z 10026bb0     serialport.obj
 0002:00007bc8       __ehfuncinfo$?ThrowTypeError@Nan@@YAXPBD@Z 10026bc8     serialport.obj
 0002:00007bec       __unwindtable$??0Utf8String@Nan@@QAE@V?$Local@VValue@v8@@@v8@@@Z 10026bec     serialport.obj
 0002:00007c04       __ehfuncinfo$??0Utf8String@Nan@@QAE@V?$Local@VValue@v8@@@v8@@@Z 10026c04     serialport.obj
 0002:00007c28       __unwindtable$??1Callback@Nan@@QAE@XZ 10026c28     serialport.obj
 0002:00007c38       __ehfuncinfo$??1Callback@Nan@@QAE@XZ 10026c38     serialport.obj
 0002:00007c5c       __ehfuncinfo$?Call@Callback@Nan@@QBE?AV?$MaybeLocal@VValue@v8@@@v8@@HQAV?$Local@VValue@v8@@@4@PAVAsyncResource@2@@Z 10026c5c     serialport.obj
 0002:00007c80       __unwindtable$?Call@Callback@Nan@@QBE?AV?$MaybeLocal@VValue@v8@@@v8@@HQAV?$Local@VValue@v8@@@4@PAVAsyncResource@2@@Z 10026c80     serialport.obj
 0002:00007cb0       __unwindtable$??1?$Persistent@VFunction@v8@@V?$NonCopyablePersistentTraits@VFunction@v8@@@2@@Nan@@QAE@XZ 10026cb0     serialport.obj
 0002:00007cb0       __unwindtable$??1?$Persistent@VObject@v8@@V?$NonCopyablePersistentTraits@VObject@v8@@@2@@Nan@@QAE@XZ 10026cb0     serialport_win.obj
 0002:00007cb8       __ehfuncinfo$??1?$Persistent@VFunction@v8@@V?$NonCopyablePersistentTraits@VFunction@v8@@@2@@Nan@@QAE@XZ 10026cb8     serialport.obj
 0002:00007cb8       __ehfuncinfo$??1?$Persistent@VObject@v8@@V?$NonCopyablePersistentTraits@VObject@v8@@@2@@Nan@@QAE@XZ 10026cb8     serialport_win.obj
 0002:00007cdc       __unwindtable$??0VoidBaton@@QAE@XZ 10026cdc     serialport.obj
 0002:00007cfc       __ehfuncinfo$??0VoidBaton@@QAE@XZ 10026cfc     serialport.obj
 0002:00007d20       __unwindtable$?getValueFromObject@@YA?AV?$Local@VValue@v8@@@v8@@V?$Local@VObject@v8@@@2@V?$basic_string@DU?$char_traits@D@std@@V?$allocator@D@2@@std@@@Z 10026d20     serialport.obj
 0002:00007d40       __ehfuncinfo$?getValueFromObject@@YA?AV?$Local@VValue@v8@@@v8@@V?$Local@VObject@v8@@@2@V?$basic_string@DU?$char_traits@D@std@@V?$allocator@D@2@@std@@@Z 10026d40     serialport.obj
 0002:00007d64       __unwindtable$?getIntFromObject@@YAHV?$Local@VObject@v8@@@v8@@V?$basic_string@DU?$char_traits@D@std@@V?$allocator@D@2@@std@@@Z 10026d64     serialport.obj
 0002:00007d84       __ehfuncinfo$?getIntFromObject@@YAHV?$Local@VObject@v8@@@v8@@V?$basic_string@DU?$char_traits@D@std@@V?$allocator@D@2@@std@@@Z 10026d84     serialport.obj
 0002:00007da8       __unwindtable$?getBoolFromObject@@YA_NV?$Local@VObject@v8@@@v8@@V?$basic_string@DU?$char_traits@D@std@@V?$allocator@D@2@@std@@@Z 10026da8     serialport.obj
 0002:00007dc8       __ehfuncinfo$?getBoolFromObject@@YA_NV?$Local@VObject@v8@@@v8@@V?$basic_string@DU?$char_traits@D@std@@V?$allocator@D@2@@std@@@Z 10026dc8     serialport.obj
 0002:00007dec       __ehfuncinfo$?Open@@YAXABV?$FunctionCallbackInfo@VValue@v8@@@Nan@@@Z 10026dec     serialport.obj
 0002:00007e10       __unwindtable$?Open@@YAXABV?$FunctionCallbackInfo@VValue@v8@@@Nan@@@Z 10026e10     serialport.obj
 0002:00007ef8       __ehfuncinfo$?EIO_AfterOpen@@YAXPAUuv_work_s@@@Z 10026ef8     serialport.obj
 0002:00007f1c       __unwindtable$?EIO_AfterOpen@@YAXPAUuv_work_s@@@Z 10026f1c     serialport.obj
 0002:00007f64       __ehfuncinfo$?Update@@YAXABV?$FunctionCallbackInfo@VValue@v8@@@Nan@@@Z 10026f64     serialport.obj
 0002:00007f88       __unwindtable$?Update@@YAXABV?$FunctionCallbackInfo@VValue@v8@@@Nan@@@Z 10026f88     serialport.obj
 0002:00007fd8       __ehfuncinfo$?EIO_AfterUpdate@@YAXPAUuv_work_s@@@Z 10026fd8     serialport.obj
 0002:00007ffc       __unwindtable$?EIO_AfterUpdate@@YAXPAUuv_work_s@@@Z 10026ffc     serialport.obj
 0002:00008034       __unwindtable$?Close@@YAXABV?$FunctionCallbackInfo@VValue@v8@@@Nan@@@Z 10027034     serialport.obj
 0002:0000804c       __ehfuncinfo$?Close@@YAXABV?$FunctionCallbackInfo@VValue@v8@@@Nan@@@Z 1002704c     serialport.obj
 0002:00008070       __ehfuncinfo$?EIO_AfterClose@@YAXPAUuv_work_s@@@Z 10027070     serialport.obj
 0002:00008070       __ehfuncinfo$?EIO_AfterDrain@@YAXPAUuv_work_s@@@Z 10027070     serialport.obj
 0002:00008070       __ehfuncinfo$?EIO_AfterFlush@@YAXPAUuv_work_s@@@Z 10027070     serialport.obj
 0002:00008070       __ehfuncinfo$?EIO_AfterSet@@YAXPAUuv_work_s@@@Z 10027070     serialport.obj
 0002:00008094       __unwindtable$?EIO_AfterClose@@YAXPAUuv_work_s@@@Z 10027094     serialport.obj
 0002:00008094       __unwindtable$?EIO_AfterDrain@@YAXPAUuv_work_s@@@Z 10027094     serialport.obj
 0002:00008094       __unwindtable$?EIO_AfterFlush@@YAXPAUuv_work_s@@@Z 10027094     serialport.obj
 0002:00008094       __unwindtable$?EIO_AfterSet@@YAXPAUuv_work_s@@@Z 10027094     serialport.obj
 0002:000080cc       __unwindtable$?Flush@@YAXABV?$FunctionCallbackInfo@VValue@v8@@@Nan@@@Z 100270cc     serialport.obj
 0002:000080dc       __ehfuncinfo$?Flush@@YAXABV?$FunctionCallbackInfo@VValue@v8@@@Nan@@@Z 100270dc     serialport.obj
 0002:00008100       __ehfuncinfo$?Set@@YAXABV?$FunctionCallbackInfo@VValue@v8@@@Nan@@@Z 10027100     serialport.obj
 0002:00008124       __unwindtable$?Set@@YAXABV?$FunctionCallbackInfo@VValue@v8@@@Nan@@@Z 10027124     serialport.obj
 0002:00008194       __ehfuncinfo$?Get@@YAXABV?$FunctionCallbackInfo@VValue@v8@@@Nan@@@Z 10027194     serialport.obj
 0002:000081b8       __unwindtable$?Get@@YAXABV?$FunctionCallbackInfo@VValue@v8@@@Nan@@@Z 100271b8     serialport.obj
 0002:000081e8       __ehfuncinfo$?EIO_AfterGet@@YAXPAUuv_work_s@@@Z 100271e8     serialport.obj
 0002:0000820c       __unwindtable$?EIO_AfterGet@@YAXPAUuv_work_s@@@Z 1002720c     serialport.obj
 0002:00008264       __ehfuncinfo$?GetBaudRate@@YAXABV?$FunctionCallbackInfo@VValue@v8@@@Nan@@@Z 10027264     serialport.obj
 0002:00008288       __unwindtable$?GetBaudRate@@YAXABV?$FunctionCallbackInfo@VValue@v8@@@Nan@@@Z 10027288     serialport.obj
 0002:000082b8       __ehfuncinfo$?EIO_AfterGetBaudRate@@YAXPAUuv_work_s@@@Z 100272b8     serialport.obj
 0002:000082dc       __unwindtable$?EIO_AfterGetBaudRate@@YAXPAUuv_work_s@@@Z 100272dc     serialport.obj
 0002:0000831c       __unwindtable$?Drain@@YAXABV?$FunctionCallbackInfo@VValue@v8@@@Nan@@@Z 1002731c     serialport.obj
 0002:0000832c       __ehfuncinfo$?Drain@@YAXABV?$FunctionCallbackInfo@VValue@v8@@@Nan@@@Z 1002732c     serialport.obj
 0002:00008350       __unwindtable$?init@@YAXV?$Local@VObject@v8@@@v8@@@Z 10027350     serialport.obj
 0002:00008368       __ehfuncinfo$?init@@YAXV?$Local@VObject@v8@@@v8@@@Z 10027368     serialport.obj
 0002:0000838c       __unwindtable$??$New@VString@v8@@V?$basic_string@DU?$char_traits@D@std@@V?$allocator@D@2@@std@@@Nan@@YA?AV?$MaybeLocal@VString@v8@@@v8@@V?$basic_string@DU?$char_traits@D@std@@V?$allocator@D@2@@std@@@Z 1002738c     serialport.obj
 0002:00008394       __ehfuncinfo$??$New@VString@v8@@V?$basic_string@DU?$char_traits@D@std@@V?$allocator@D@2@@std@@@Nan@@YA?AV?$MaybeLocal@VString@v8@@@v8@@V?$basic_string@DU?$char_traits@D@std@@V?$allocator@D@2@@std@@@Z 10027394     serialport.obj
 0002:000083b8       __unwindtable$??$New@VInteger@v8@@H@Nan@@YA?AV?$Local@VInteger@v8@@@v8@@H@Z 100273b8     serialport.obj
 0002:000083c8       __ehfuncinfo$??$New@VInteger@v8@@H@Nan@@YA?AV?$Local@VInteger@v8@@@v8@@H@Z 100273c8     serialport.obj
 0002:000083ec       __unwindtable$??$SetMethod@VObject@v8@@VLocal@2@@Nan@@YAXV?$Local@VObject@v8@@@v8@@PBDP6AXABV?$FunctionCallbackInfo@VValue@v8@@@0@@ZV?$Local@VValue@v8@@@2@@Z 100273ec     serialport.obj
 0002:00008404       __ehfuncinfo$??$SetMethod@VObject@v8@@VLocal@2@@Nan@@YAXV?$Local@VObject@v8@@@v8@@PBDP6AXABV?$FunctionCallbackInfo@VValue@v8@@@0@@ZV?$Local@VValue@v8@@@2@@Z 10027404     serialport.obj
 0002:00008428       __unwindtable$??$SetMethodAux@V?$Local@VObject@v8@@@v8@@@imp@Nan@@YAXV?$Local@VObject@v8@@@v8@@V?$Local@VString@v8@@@3@V?$Local@VFunctionTemplate@v8@@@3@ZZ 10027428     serialport.obj
 0002:00008440       __ehfuncinfo$??$SetMethodAux@V?$Local@VObject@v8@@@v8@@@imp@Nan@@YAXV?$Local@VObject@v8@@@v8@@V?$Local@VString@v8@@@3@V?$Local@VFunctionTemplate@v8@@@3@ZZ 10027440     serialport.obj
 0002:00008464       __ehfuncinfo$?Write@@YAXABV?$FunctionCallbackInfo@VValue@v8@@@Nan@@@Z 10027464     serialport_win.obj
 0002:00008488       __unwindtable$?Write@@YAXABV?$FunctionCallbackInfo@VValue@v8@@@Nan@@@Z 10027488     serialport_win.obj
 0002:000084d8       __ehfuncinfo$?EIO_AfterWrite@@YAXPAUuv_async_s@@@Z 100274d8     serialport_win.obj
 0002:000084fc       __unwindtable$?EIO_AfterWrite@@YAXPAUuv_async_s@@@Z 100274fc     serialport_win.obj
 0002:00008544       __ehfuncinfo$?Read@@YAXABV?$FunctionCallbackInfo@VValue@v8@@@Nan@@@Z 10027544     serialport_win.obj
 0002:00008568       __unwindtable$?Read@@YAXABV?$FunctionCallbackInfo@VValue@v8@@@Nan@@@Z 10027568     serialport_win.obj
 0002:000085c8       __ehfuncinfo$?EIO_AfterRead@@YAXPAUuv_async_s@@@Z 100275c8     serialport_win.obj
 0002:000085ec       __unwindtable$?EIO_AfterRead@@YAXPAUuv_async_s@@@Z 100275ec     serialport_win.obj
 0002:00008644       __unwindtable$?EIO_Close@@YAXPAUuv_work_s@@@Z 10027644     serialport_win.obj
 0002:0000865c       __ehfuncinfo$?EIO_Close@@YAXPAUuv_work_s@@@Z 1002765c     serialport_win.obj
 0002:00008680       __ehfuncinfo$?List@@YAXABV?$FunctionCallbackInfo@VValue@v8@@@Nan@@@Z 10027680     serialport_win.obj
 0002:000086a4       __unwindtable$?List@@YAXABV?$FunctionCallbackInfo@VValue@v8@@@Nan@@@Z 100276a4     serialport_win.obj
 0002:000086d4       __ehfuncinfo$?EIO_List@@YAXPAUuv_work_s@@@Z 100276d4     serialport_win.obj
 0002:000086f8       __unwindtable$?EIO_List@@YAXPAUuv_work_s@@@Z 100276f8     serialport_win.obj
 0002:00008748       __unwindtable$?setIfNotEmpty@@YAXV?$Local@VObject@v8@@@v8@@V?$basic_string@DU?$char_traits@D@std@@V?$allocator@D@2@@std@@PBD@Z 10027748     serialport_win.obj
 0002:00008768       __ehfuncinfo$?setIfNotEmpty@@YAXV?$Local@VObject@v8@@@v8@@V?$basic_string@DU?$char_traits@D@std@@V?$allocator@D@2@@std@@PBD@Z 10027768     serialport_win.obj
 0002:0000878c       __ehfuncinfo$?EIO_AfterList@@YAXPAUuv_work_s@@@Z 1002778c     serialport_win.obj
 0002:000087b0       __unwindtable$?EIO_AfterList@@YAXPAUuv_work_s@@@Z 100277b0     serialport_win.obj
 0002:00008830       __ehfuncinfo$??1ListResultItem@@QAE@XZ 10027830     serialport_win.obj
 0002:00008854       __unwindtable$??1ListResultItem@@QAE@XZ 10027854     serialport_win.obj
 0002:0000888c       __unwindtable$??1?$_List_node_emplace_op2@V?$allocator@U?$_List_node@HPAX@std@@@std@@@std@@QAE@XZ 1002788c     serialport_win.obj
 0002:0000888c       __unwindtable$??1?$_List_node_emplace_op2@V?$allocator@U?$_List_node@PAUListResultItem@@PAX@std@@@std@@@std@@QAE@XZ 1002788c     serialport_win.obj
 0002:00008894       __ehfuncinfo$??1?$_List_node_emplace_op2@V?$allocator@U?$_List_node@HPAX@std@@@std@@@std@@QAE@XZ 10027894     serialport_win.obj
 0002:00008894       __ehfuncinfo$??1?$_List_node_emplace_op2@V?$allocator@U?$_List_node@PAUListResultItem@@PAX@std@@@std@@@std@@QAE@XZ 10027894     serialport_win.obj
 0002:00008968       __sehtable$___scrt_is_nonwritable_in_current_image 10027968     LIBCMT:utility.obj
 0002:00008988       __sehtable$?dllmain_crt_process_attach@@YAHQAUHINSTANCE__@@QAX@Z 10027988     LIBCMT:dll_dllmain.obj
 0002:000089a8       __sehtable$?dllmain_crt_process_detach@@YAH_N@Z 100279a8     LIBCMT:dll_dllmain.obj
 0002:000089d0       __sehtable$?dllmain_dispatch@@YAHQAUHINSTANCE__@@KQAX@Z 100279d0     LIBCMT:dll_dllmain.obj
 0002:00008a28       __sehtable$___DestructExceptionObject 10027a28     libvcruntime:ehhelpers.obj
 0002:00008a48       __sehtable$?FrameUnwindToState@__FrameHandler3@@SAXPAUEHRegistrationNode@@PAXPBU_s_FuncInfo@@H@Z 10027a48     libvcruntime:frame.obj
 0002:00008a70       __sehtable$?CallCatchBlock@@YAPAXPAUEHExceptionRecord@@PAUEHRegistrationNode@@PAU_CONTEXT@@PBU_s_FuncInfo@@PAXHK@Z 10027a70     libvcruntime:frame.obj
 0002:00008a98       __catchsym$?CallUnexpected@@YAXPBU_s_ESTypeList@@@Z$2 10027a98     libvcruntime:frame.obj
 0002:00008aa8       __unwindtable$?CallUnexpected@@YAXPBU_s_ESTypeList@@@Z 10027aa8     libvcruntime:frame.obj
 0002:00008ab8       __tryblocktable$?CallUnexpected@@YAXPBU_s_ESTypeList@@@Z 10027ab8     libvcruntime:frame.obj
 0002:00008acc       __ehfuncinfo$?CallUnexpected@@YAXPBU_s_ESTypeList@@@Z 10027acc     libvcruntime:frame.obj
 0002:00008af0       __sehtable$??$BuildCatchObjectHelperInternal@V__FrameHandler3@@@@YAHPAUEHExceptionRecord@@PAXPBU_s_HandlerType@@PBU_s_CatchableType@@@Z 10027af0     libvcruntime:frame.obj
 0002:00008b10       __sehtable$??$BuildCatchObjectInternal@V__FrameHandler3@@@@YAXPAUEHExceptionRecord@@PAXPBU_s_HandlerType@@PBU_s_CatchableType@@@Z 10027b10     libvcruntime:frame.obj
 0002:00008b68       __sehtable$??$?RV<lambda_9b2bd5c6bb91c5c032542faa5c3cb611>@@AAV<lambda_be68057ced330f874c40fe9612235e36>@@V<lambda_dbd837d1c0b7fc6e2d81c287c81c071b>@@@?$__crt_seh_guarded_call@H@@QAEH$$QAV<lambda_9b2bd5c6bb91c5c032542faa5c3cb611>@@AAV<lambda_be68057ced330f874c40fe9612235e36>@@$$QAV<lambda_dbd837d1c0b7fc6e2d81c287c81c071b>@@@Z 10027b68     libucrt:output.obj
 0002:00008b88       __sehtable$__query_new_handler 10027b88     libucrt:new_handler.obj
 0002:00008ba8       __sehtable$??R<lambda_6e4b09c48022b2350581041d5f6b0c4c>@@QBE@XZ 10027ba8     libucrt:exit.obj
 0002:00008bc8       __sehtable$??$?RV<lambda_03b1d95aef87969028cfba75ccab2455>@@AAV<lambda_6e4b09c48022b2350581041d5f6b0c4c>@@V<lambda_22bdf7517842c4b3e53723af5aa32b9e>@@@?$__crt_seh_guarded_call@X@@QAEX$$QAV<lambda_03b1d95aef87969028cfba75ccab2455>@@AAV<lambda_6e4b09c48022b2350581041d5f6b0c4c>@@$$QAV<lambda_22bdf7517842c4b3e53723af5aa32b9e>@@@Z 10027bc8     libucrt:exit.obj
 0002:00008be8       __sehtable$??$?RV<lambda_8e746cf0007f6ed984d6f78af1fec997>@@AAV<lambda_22ebabd17bc4fa466a2aca6d8deb888d>@@V<lambda_18ed0c0b38a6dc0daf1e7ac6d6adf05e>@@@?$__crt_seh_guarded_call@H@@QAEH$$QAV<lambda_8e746cf0007f6ed984d6f78af1fec997>@@AAV<lambda_22ebabd17bc4fa466a2aca6d8deb888d>@@$$QAV<lambda_18ed0c0b38a6dc0daf1e7ac6d6adf05e>@@@Z 10027be8     libucrt:onexit.obj
 0002:00008c08       __sehtable$??$?RV<lambda_69a2805e680e0e292e8ba93315fe43a8>@@AAV<lambda_f03950bc5685219e0bcd2087efbe011e>@@V<lambda_03fcd07e894ec930e3f35da366ca99d6>@@@?$__crt_seh_guarded_call@H@@QAEH$$QAV<lambda_69a2805e680e0e292e8ba93315fe43a8>@@AAV<lambda_f03950bc5685219e0bcd2087efbe011e>@@$$QAV<lambda_03fcd07e894ec930e3f35da366ca99d6>@@@Z 10027c08     libucrt:onexit.obj
 0002:00008c28       __sehtable$_terminate      10027c28     libucrt:terminate.obj
 0002:00008c48       __sehtable$??$?RV<lambda_15ade71b0218206bbe3333a0c9b79046>@@AAV<lambda_da44e0f8b0f19ba52fefafb335991732>@@V<lambda_207f2d024fc103971653565357d6cd41>@@@?$__crt_seh_guarded_call@X@@QAEX$$QAV<lambda_15ade71b0218206bbe3333a0c9b79046>@@AAV<lambda_da44e0f8b0f19ba52fefafb335991732>@@$$QAV<lambda_207f2d024fc103971653565357d6cd41>@@@Z 10027c48     libucrt:per_thread_data.obj
 0002:00008c68       __sehtable$??$?RV<lambda_a7e850c220f1c8d1e6efeecdedd162c6>@@AAV<lambda_46720907175c18b6c9d2717bc0d2d362>@@V<lambda_9048902d66e8d99359bc9897bbb930a8>@@@?$__crt_seh_guarded_call@X@@QAEX$$QAV<lambda_a7e850c220f1c8d1e6efeecdedd162c6>@@AAV<lambda_46720907175c18b6c9d2717bc0d2d362>@@$$QAV<lambda_9048902d66e8d99359bc9897bbb930a8>@@@Z 10027c68     libucrt:per_thread_data.obj
 0002:00008c88       __sehtable$??$?RV<lambda_38edbb1296d33220d7e4dd0ed76b244a>@@AAV<lambda_5ce1d447e08cb34b2473517608e21441>@@V<lambda_fb385d3da700c9147fc39e65dd577a8c>@@@?$__crt_seh_guarded_call@X@@QAEX$$QAV<lambda_38edbb1296d33220d7e4dd0ed76b244a>@@AAV<lambda_5ce1d447e08cb34b2473517608e21441>@@$$QAV<lambda_fb385d3da700c9147fc39e65dd577a8c>@@@Z 10027c88     libucrt:per_thread_data.obj
 0002:00008ca8       __sehtable$??$?RV<lambda_6affb1475c98b40b75cdec977db92e3c>@@AAV<lambda_b8d4b9c228a6ecc3f80208dbb4b4a104>@@V<lambda_608742c3c92a14382c1684fc64f96c88>@@@?$__crt_seh_guarded_call@X@@QAEX$$QAV<lambda_6affb1475c98b40b75cdec977db92e3c>@@AAV<lambda_b8d4b9c228a6ecc3f80208dbb4b4a104>@@$$QAV<lambda_608742c3c92a14382c1684fc64f96c88>@@@Z 10027ca8     libucrt:per_thread_data.obj
 0002:00008cc8       __sehtable$??$?RV<lambda_e5124f882df8998aaf41531e079ba474>@@AAV<lambda_3e16ef9562a7dcce91392c22ab16ea36>@@V<lambda_e25ca0880e6ef98be67edffd8c599615>@@@?$__crt_seh_guarded_call@X@@QAEX$$QAV<lambda_e5124f882df8998aaf41531e079ba474>@@AAV<lambda_3e16ef9562a7dcce91392c22ab16ea36>@@$$QAV<lambda_e25ca0880e6ef98be67edffd8c599615>@@@Z 10027cc8     libucrt:wsetlocale.obj
 0002:00008ce8       __sehtable$___acrt_initialize_lowio 10027ce8     libucrt:ioinit.obj
 0002:00008d08       __sehtable$??$?RV<lambda_2866be3712abc81a800a822484c830d8>@@AAV<lambda_39ca0ed439415581b5b15c265174cece>@@V<lambda_2b24c74d71094a6cd0cb82e44167d71b>@@@?$__crt_seh_guarded_call@X@@QAEX$$QAV<lambda_2866be3712abc81a800a822484c830d8>@@AAV<lambda_39ca0ed439415581b5b15c265174cece>@@$$QAV<lambda_2b24c74d71094a6cd0cb82e44167d71b>@@@Z 10027d08     libucrt:fflush.obj
 0002:00008d28       __sehtable$??$?RV<lambda_2cc53f568c5a2bb6f192f930a45d44ea>@@AAV<lambda_ab61a845afdef5b7c387490eaf3616ee>@@V<lambda_c2ffc0b7726aa6be21d5f0026187e748>@@@?$__crt_seh_guarded_call@X@@QAEX$$QAV<lambda_2cc53f568c5a2bb6f192f930a45d44ea>@@AAV<lambda_ab61a845afdef5b7c387490eaf3616ee>@@$$QAV<lambda_c2ffc0b7726aa6be21d5f0026187e748>@@@Z 10027d28     libucrt:fflush.obj
 0002:00008d48       __sehtable$??$?RV<lambda_6d20deecaf4856105ebacbad442d1079>@@AAV<lambda_9a32fed5bf61b6b509b2d3f6003082a1>@@V<lambda_63ea2239ed67c638ddbae41947fdf875>@@@?$__crt_seh_guarded_call@H@@QAEH$$QAV<lambda_6d20deecaf4856105ebacbad442d1079>@@AAV<lambda_9a32fed5bf61b6b509b2d3f6003082a1>@@$$QAV<lambda_63ea2239ed67c638ddbae41947fdf875>@@@Z 10027d48     libucrt:fflush.obj
 0002:00008d68       __sehtable$??$?RV<lambda_b4242a90177f71b82d5a351515ac407a>@@AAV<lambda_b4f66040be5f354a654fb75160c27bfc>@@V<lambda_414c89348e1c610e2dbd648c5fde2086>@@@?$__crt_seh_guarded_call@H@@QAEH$$QAV<lambda_b4242a90177f71b82d5a351515ac407a>@@AAV<lambda_b4f66040be5f354a654fb75160c27bfc>@@$$QAV<lambda_414c89348e1c610e2dbd648c5fde2086>@@@Z 10027d68     libucrt:setvbuf.obj
 0002:00008d88       __sehtable$_raise          10027d88     libucrt:signal.obj
 0002:00008da8       __sehtable$??$?RV<lambda_cbab9ec6f41b0180b23cc171c22676b0>@@AAV<lambda_44731a7d0e6d81c3e6aa82d741081786>@@V<lambda_4b292cb8dd18144e164572427af410ab>@@@?$__crt_seh_guarded_call@P6AXH@Z@@QAEP6AXH@Z$$QAV<lambda_cbab9ec6f41b0180b23cc171c22676b0>@@AAV<lambda_44731a7d0e6d81c3e6aa82d741081786>@@$$QAV<lambda_4b292cb8dd18144e164572427af410ab>@@@Z 10027da8     libucrt:signal.obj
 0002:00008dc8       __sehtable$?update_thread_multibyte_data_internal@@YAPAU__crt_multibyte_data@@QAU__acrt_ptd@@QAPAU1@@Z 10027dc8     libucrt:mbctype.obj
 0002:00008de8       __sehtable$??$?RV<lambda_ceb1ee4838e85a9d631eb091e2fbe199>@@AAV<lambda_ae742caa10f662c28703da3d2ea5e57e>@@V<lambda_cd08b5d6af4937fe54fc07d0c9bf6b37>@@@?$__crt_seh_guarded_call@X@@QAEX$$QAV<lambda_ceb1ee4838e85a9d631eb091e2fbe199>@@AAV<lambda_ae742caa10f662c28703da3d2ea5e57e>@@$$QAV<lambda_cd08b5d6af4937fe54fc07d0c9bf6b37>@@@Z 10027de8     libucrt:mbctype.obj
 0002:00008e08       __sehtable$___acrt_update_thread_locale_data 10027e08     libucrt:locale_refcounting.obj
 0002:00008e28       __sehtable$__fcloseall     10027e28     libucrt:closeall.obj
 0002:00008e48       __sehtable$___acrt_lowio_ensure_fh_exists 10027e48     libucrt:osfinfo.obj
 0002:00008e68       __sehtable$??$?RV<lambda_9e9de3de5fa147e2223d7db92bc10aa6>@@AAV<lambda_38ce7e780aa69e748d6df282ebc68efe>@@V<lambda_8ca6da459f0f6780f1cff60fdc3d00e5>@@@?$__crt_seh_guarded_call@H@@QAEH$$QAV<lambda_9e9de3de5fa147e2223d7db92bc10aa6>@@AAV<lambda_38ce7e780aa69e748d6df282ebc68efe>@@$$QAV<lambda_8ca6da459f0f6780f1cff60fdc3d00e5>@@@Z 10027e68     libucrt:commit.obj
 0002:00008e88       __sehtable$__write         10027e88     libucrt:write.obj
 0002:00008ea8       __sehtable$??$common_lseek@_J@@YA_JH_JH@Z 10027ea8     libucrt:lseek.obj
 0002:00008ec8       __sehtable$_fclose         10027ec8     libucrt:fclose.obj
 0002:00008ee8       __sehtable$??$?RV<lambda_218ce3db14220d0be481dae8ef3383b6>@@AAV<lambda_628dfdc04ba53c8bfc02c9951375f3f5>@@V<lambda_57dc472bd5c9d5f3b2cbca59b8a843ae>@@@?$__crt_seh_guarded_call@H@@QAEH$$QAV<lambda_218ce3db14220d0be481dae8ef3383b6>@@AAV<lambda_628dfdc04ba53c8bfc02c9951375f3f5>@@$$QAV<lambda_57dc472bd5c9d5f3b2cbca59b8a843ae>@@@Z 10027ee8     libucrt:close.obj
 0002:00008f08       __sehtable$___set_fpsr_sse2 10027f08     libucrt:fpctrl.obj
 0002:00008f28       __sehtable$__IsNonwritableInCurrentImage 10027f28     LIBCMT:pesect.obj
 0002:0000a0a0       .edata                     100290a0     bindings.exp
 0002:0000a0c8       rgpv                       100290c8     bindings.exp
 0002:0000a0cc       rgszName                   100290cc     bindings.exp
 0002:0000a0d0       rgwOrd                     100290d0     bindings.exp
 0002:0000a0d2       szName                     100290d2     bindings.exp
 0002:0000a0e0       $N00001                    100290e0     bindings.exp
 0002:0000a4a0       .idata$6                   100294a0     kernel32:KERNEL32.dll
 0002:0000a504       .idata$6                   10029504     advapi32:ADVAPI32.dll
 0002:0000a524       .idata$6                   10029524     ole32:ole32.dll
 0002:0000a5d8       .idata$6                   100295d8     setupapi:SETUPAPI.dll
 0003:00000010       ?__vcrt_flsindex@@3KA      1002a010     libvcruntime:per_thread_data.obj
 0003:00000040       ?__acrt_flsindex@@3KA      1002a040     libucrt:per_thread_data.obj
 0003:00000044       ?errno_no_memory@@3HA      1002a044     libucrt:errno.obj
 0003:00000048       ?doserrno_no_memory@@3KA   1002a048     libucrt:errno.obj
 0003:00000418       __mbctypes                 1002a418     libucrt:mbctype.obj
 0003:00000520       __mbcasemaps               1002a520     libucrt:mbctype.obj
 0003:00000620       ?__rgctypeflag@@3PADA      1002a620     libucrt:mbctype.obj
 0003:00000628       ?__rgcode_page_info@@3PAUcode_page_info@@A 1002a628     libucrt:mbctype.obj
 0003:00000880       ?__dcrt_lowio_console_output_handle@@3PAXA 1002a880     libucrt:initcon.obj
 0003:00000884       ?__DAZ_ENABLED@?1??__set_fpsr_sse2@@9@9 1002a884     libucrt:fpctrl.obj
 0003:000008a0       __module                   1002a8a0     serialport.obj
 0003:00000a98       _GS_ExceptionRecord        1002aa98     LIBCMT:gs_report.obj
 0003:00000ae8       _GS_ContextRecord          1002aae8     LIBCMT:gs_report.obj
 0003:00000dbc       ?is_initialized_as_dll@@3_NA 1002adbc     LIBCMT:utility.obj
 0003:00000dbd       ?module_local_atexit_table_initialized@@3_NA 1002adbd     LIBCMT:utility.obj
 0003:00000dc0       ?module_local_atexit_table@@3U_onexit_table_t@@A 1002adc0     LIBCMT:utility.obj
 0003:00000dcc       ?module_local_at_quick_exit_table@@3U_onexit_table_t@@A 1002adcc     LIBCMT:utility.obj
 0003:00000dd8       ?__proc_attached@@3HA      1002add8     LIBCMT:dll_dllmain.obj
 0003:00000e04       ?__vcrt_startup_thread_ptd@@3U__vcrt_ptd@@A 1002ae04     libvcruntime:per_thread_data.obj
 0003:00000e2c       ___vcrt_lock_table         1002ae2c     libvcruntime:locks.obj
 0003:00000e44       ___vcrt_locks_initialized  1002ae44     libvcruntime:locks.obj
 0003:00000e70       ?heap@@3V_HeapManager@@A   1002ae70     libvcruntime:undname.obj
 0003:00000e84       ?module_handles@@3PAPAUHINSTANCE__@@A 1002ae84     libvcruntime:winapi_downlevel.obj
 0003:00000e90       ?function_pointers@@3PAPAXA 1002ae90     libvcruntime:winapi_downlevel.obj
 0003:00000ea8       ?__acrt_invalid_parameter_handler@@3V?$dual_state_global@P6AXPB_W00II@Z@__crt_state_management@@A 1002aea8     libucrt:invalid_parameter.obj
 0003:00000eac       ?__acrt_new_handler@@3V?$dual_state_global@P6AHI@Z@__crt_state_management@@A 1002aeac     libucrt:new_handler.obj
 0003:00000eb0       ?c_termination_complete@@3JA 1002aeb0     libucrt:exit.obj
 0003:00000eb4       ?thread_local_exit_callback_func@@3P6GXPAXK0@ZA 1002aeb4     libucrt:exit.obj
 0003:00000ec0       ?program_name@?1???$common_configure_argv@D@@YAHW4_crt_argv_mode@@@Z@4PADA 1002aec0     libucrt:argv_parsing.obj
 0003:00000ff0       ?internal_state@?1??_mbtowc_l@@9@4U_Mbstatet@@A 1002aff0     libucrt:mbtowc.obj
 0003:00001004       ?enable_percent_n@@3IA     1002b004     libucrt:printf_count_output.obj
 0003:0000121c       ?__acrt_app_type@@3W4_crt_app_type@@A 1002b21c     libucrt:report_runtime_error.obj
 0003:00001220       ___acrt_error_mode         1002b220     libucrt:set_error_mode.obj
 0003:00001224       ?ctrlc_action@@3V?$dual_state_global@P6AXH@Z@__crt_state_management@@A 1002b224     libucrt:signal.obj
 0003:00001228       ?ctrlbreak_action@@3V?$dual_state_global@P6AXH@Z@__crt_state_management@@A 1002b228     libucrt:signal.obj
 0003:0000122c       ?abort_action@@3V?$dual_state_global@P6AXH@Z@__crt_state_management@@A 1002b22c     libucrt:signal.obj
 0003:00001230       ?term_action@@3V?$dual_state_global@P6AXH@Z@__crt_state_management@@A 1002b230     libucrt:signal.obj
 0003:00001238       ?__acrt_lock_table@@3PAU_RTL_CRITICAL_SECTION@@A 1002b238     libucrt:locks.obj
 0003:00001388       ?__acrt_locks_initialized@@3IA 1002b388     libucrt:locks.obj
 0003:0000138c       ?state_cache@?1???$get_cached_win_policy@Udeveloper_information_policy_properties@?1??__acrt_get_developer_information_policy@@YA?AW4developer_information_policy@@XZ@@@YA?AW4developer_information_policy@@W4AppPolicyShowDeveloperDiagnostic@@@Z@4JA 1002b38c     libucrt:win_policies.obj
 0003:00001390       ?state_cache@?1???$get_cached_win_policy@Uwindowing_model_policy_properties@?1??__acrt_get_windowing_model_policy@@YA?AW4windowing_model_policy@@XZ@@@YA?AW4windowing_model_policy@@W4AppPolicyWindowingModel@@@Z@4JA 1002b390     libucrt:win_policies.obj
 0003:000013a0       ?fSystemSet@@3HA           1002b3a0     libucrt:mbctype.obj
 0003:000013a4       ?initialized@?1??__acrt_initialize_multibyte@@9@4_NA 1002b3a4     libucrt:mbctype.obj
 0003:000013c0       ?module_handles@@3PAPAUHINSTANCE__@@A 1002b3c0     libucrt:winapi_thunks.obj
 0003:00001410       ?encoded_function_pointers@@3PAPAXA 1002b410     libucrt:winapi_thunks.obj
 0003:0000149c       ?user_matherr@@3V?$dual_state_global@P6AHPAU_exception@@@Z@__crt_state_management@@A 1002b49c     libucrt:matherr.obj
 0003:000014a0       ?__acrt_global_new_mode@@3V?$dual_state_global@J@__crt_state_management@@A 1002b4a0     libucrt:new_mode.obj
 0003:000014ac       ?internal_pst@?1??__mbrtoc32_utf8@__crt_mbstring@@YAIPA_UPBDIPAU_Mbstatet@@@Z@4U3@A 1002b4ac     libucrt:mbrtoc32.obj
 0003:000014b8       __pmatherr_set             1002b4b8     libucrt:libm_error.obj
 0004:00000060       $R000000                   1002c060     * linker generated manifest res *

 Exports

  ordinal    name

        1    __register_serialport_
               exported name: _register_serialport_
